; Listing generated by Microsoft (R) Optimizing Compiler Version 16.00.30319.01 

	TITLE	d:\我的文档\visual studio 2010\Projects\ProHospital\ProHospital\ProHospitalDlg.cpp
	.686P
	.XMM
	include listing.inc
	.model	flat

INCLUDELIB MSVCRTD
INCLUDELIB OLDNAMES

PUBLIC	?OnQueryDragIcon@CProHospitalDlg@@IAEPAUHICON__@@XZ ; CProHospitalDlg::OnQueryDragIcon
PUBLIC	?OnPaint@CProHospitalDlg@@IAEXXZ		; CProHospitalDlg::OnPaint
PUBLIC	?OnSysCommand@CProHospitalDlg@@IAEXIJ@Z		; CProHospitalDlg::OnSysCommand
EXTRN	?GetThisMessageMap@CDialogEx@@KGPBUAFX_MSGMAP@@XZ:PROC ; CDialogEx::GetThisMessageMap
CONST	SEGMENT
?_messageEntries@?1??GetThisMessageMap@CAboutDlg@@KGPBUAFX_MSGMAP@@XZ@4QBUAFX_MSGMAP_ENTRY@@B DD 00H ; `CAboutDlg::GetThisMessageMap'::`2'::_messageEntries
	DD	00H
	DD	00H
	DD	00H
	DD	00H
	DD	00H
?messageMap@?1??GetThisMessageMap@CAboutDlg@@KGPBUAFX_MSGMAP@@XZ@4U3@B DD FLAT:?GetThisMessageMap@CDialogEx@@KGPBUAFX_MSGMAP@@XZ ; `CAboutDlg::GetThisMessageMap'::`2'::messageMap
	DD	FLAT:?_messageEntries@?1??GetThisMessageMap@CAboutDlg@@KGPBUAFX_MSGMAP@@XZ@4QBUAFX_MSGMAP_ENTRY@@B
?_messageEntries@?1??GetThisMessageMap@CProHospitalDlg@@KGPBUAFX_MSGMAP@@XZ@4QBUAFX_MSGMAP_ENTRY@@B DD 0112H ; `CProHospitalDlg::GetThisMessageMap'::`2'::_messageEntries
	DD	00H
	DD	00H
	DD	00H
	DD	01eH
	DD	FLAT:?OnSysCommand@CProHospitalDlg@@IAEXIJ@Z
	DD	0fH
	DD	00H
	DD	00H
	DD	00H
	DD	013H
	DD	FLAT:?OnPaint@CProHospitalDlg@@IAEXXZ
	DD	037H
	DD	00H
	DD	00H
	DD	00H
	DD	028H
	DD	FLAT:?OnQueryDragIcon@CProHospitalDlg@@IAEPAUHICON__@@XZ
	DD	00H
	DD	00H
	DD	00H
	DD	00H
	DD	00H
	DD	00H
?messageMap@?1??GetThisMessageMap@CProHospitalDlg@@KGPBUAFX_MSGMAP@@XZ@4U3@B DD FLAT:?GetThisMessageMap@CDialogEx@@KGPBUAFX_MSGMAP@@XZ ; `CProHospitalDlg::GetThisMessageMap'::`2'::messageMap
	DD	FLAT:?_messageEntries@?1??GetThisMessageMap@CProHospitalDlg@@KGPBUAFX_MSGMAP@@XZ@4QBUAFX_MSGMAP_ENTRY@@B
CONST	ENDS
PUBLIC	??_7CAboutDlg@@6B@				; CAboutDlg::`vftable'
PUBLIC	??0CAboutDlg@@QAE@XZ				; CAboutDlg::CAboutDlg
PUBLIC	??_R4CAboutDlg@@6B@				; CAboutDlg::`RTTI Complete Object Locator'
PUBLIC	??_R0?AVCAboutDlg@@@8				; CAboutDlg `RTTI Type Descriptor'
PUBLIC	??_R3CAboutDlg@@8				; CAboutDlg::`RTTI Class Hierarchy Descriptor'
PUBLIC	??_R2CAboutDlg@@8				; CAboutDlg::`RTTI Base Class Array'
PUBLIC	??_R1A@?0A@EA@CAboutDlg@@8			; CAboutDlg::`RTTI Base Class Descriptor at (0,-1,0,64)'
PUBLIC	??_R1A@?0A@EA@CDialogEx@@8			; CDialogEx::`RTTI Base Class Descriptor at (0,-1,0,64)'
PUBLIC	??_R0?AVCDialogEx@@@8				; CDialogEx `RTTI Type Descriptor'
PUBLIC	??_R3CDialogEx@@8				; CDialogEx::`RTTI Class Hierarchy Descriptor'
PUBLIC	??_R2CDialogEx@@8				; CDialogEx::`RTTI Base Class Array'
PUBLIC	??_R1A@?0A@EA@CDialog@@8			; CDialog::`RTTI Base Class Descriptor at (0,-1,0,64)'
PUBLIC	??_R0?AVCDialog@@@8				; CDialog `RTTI Type Descriptor'
PUBLIC	??_R3CDialog@@8					; CDialog::`RTTI Class Hierarchy Descriptor'
PUBLIC	??_R2CDialog@@8					; CDialog::`RTTI Base Class Array'
PUBLIC	??_R1A@?0A@EA@CWnd@@8				; CWnd::`RTTI Base Class Descriptor at (0,-1,0,64)'
PUBLIC	??_R0?AVCWnd@@@8				; CWnd `RTTI Type Descriptor'
PUBLIC	??_R3CWnd@@8					; CWnd::`RTTI Class Hierarchy Descriptor'
PUBLIC	??_R2CWnd@@8					; CWnd::`RTTI Base Class Array'
PUBLIC	??_R1A@?0A@EA@CCmdTarget@@8			; CCmdTarget::`RTTI Base Class Descriptor at (0,-1,0,64)'
PUBLIC	??_R0?AVCCmdTarget@@@8				; CCmdTarget `RTTI Type Descriptor'
PUBLIC	??_R3CCmdTarget@@8				; CCmdTarget::`RTTI Class Hierarchy Descriptor'
PUBLIC	??_R2CCmdTarget@@8				; CCmdTarget::`RTTI Base Class Array'
PUBLIC	??_R1A@?0A@EA@CObject@@8			; CObject::`RTTI Base Class Descriptor at (0,-1,0,64)'
PUBLIC	??_R0?AVCObject@@@8				; CObject `RTTI Type Descriptor'
PUBLIC	??_R3CObject@@8					; CObject::`RTTI Class Hierarchy Descriptor'
PUBLIC	??_R2CObject@@8					; CObject::`RTTI Base Class Array'
PUBLIC	?GetMessageMap@CAboutDlg@@MBEPBUAFX_MSGMAP@@XZ	; CAboutDlg::GetMessageMap
PUBLIC	?DoDataExchange@CAboutDlg@@MAEXPAVCDataExchange@@@Z ; CAboutDlg::DoDataExchange
EXTRN	??0CDialogEx@@QAE@IPAVCWnd@@@Z:PROC		; CDialogEx::CDialogEx
EXTRN	__RTC_CheckEsp:PROC
EXTRN	__RTC_Shutdown:PROC
EXTRN	__RTC_InitBase:PROC
EXTRN	??_7type_info@@6B@:QWORD			; type_info::`vftable'
EXTRN	?GetRuntimeClass@CDialogEx@@UBEPAUCRuntimeClass@@XZ:PROC ; CDialogEx::GetRuntimeClass
EXTRN	??_ECAboutDlg@@UAEPAXI@Z:PROC			; CAboutDlg::`vector deleting destructor'
EXTRN	?Serialize@CObject@@UAEXAAVCArchive@@@Z:PROC	; CObject::Serialize
EXTRN	?AssertValid@CDialog@@UBEXXZ:PROC		; CDialog::AssertValid
EXTRN	?Dump@CDialog@@UBEXAAVCDumpContext@@@Z:PROC	; CDialog::Dump
EXTRN	?OnCmdMsg@CDialog@@UAEHIHPAXPAUAFX_CMDHANDLERINFO@@@Z:PROC ; CDialog::OnCmdMsg
EXTRN	?OnFinalRelease@CWnd@@UAEXXZ:PROC		; CWnd::OnFinalRelease
EXTRN	?IsInvokeAllowed@CCmdTarget@@UAEHJ@Z:PROC	; CCmdTarget::IsInvokeAllowed
EXTRN	?GetDispatchIID@CCmdTarget@@UAEHPAU_GUID@@@Z:PROC ; CCmdTarget::GetDispatchIID
EXTRN	?GetTypeInfoCount@CCmdTarget@@UAEIXZ:PROC	; CCmdTarget::GetTypeInfoCount
EXTRN	?GetTypeLibCache@CCmdTarget@@UAEPAVCTypeLibCache@@XZ:PROC ; CCmdTarget::GetTypeLibCache
EXTRN	?GetTypeLib@CCmdTarget@@UAEJKPAPAUITypeLib@@@Z:PROC ; CCmdTarget::GetTypeLib
EXTRN	?GetCommandMap@CCmdTarget@@MBEPBUAFX_OLECMDMAP@@XZ:PROC ; CCmdTarget::GetCommandMap
EXTRN	?GetDispatchMap@CCmdTarget@@MBEPBUAFX_DISPMAP@@XZ:PROC ; CCmdTarget::GetDispatchMap
EXTRN	?GetConnectionMap@CCmdTarget@@MBEPBUAFX_CONNECTIONMAP@@XZ:PROC ; CCmdTarget::GetConnectionMap
EXTRN	?GetInterfaceMap@CWnd@@MBEPBUAFX_INTERFACEMAP@@XZ:PROC ; CWnd::GetInterfaceMap
EXTRN	?GetEventSinkMap@CCmdTarget@@MBEPBUAFX_EVENTSINKMAP@@XZ:PROC ; CCmdTarget::GetEventSinkMap
EXTRN	?OnCreateAggregates@CCmdTarget@@UAEHXZ:PROC	; CCmdTarget::OnCreateAggregates
EXTRN	?GetInterfaceHook@CCmdTarget@@UAEPAUIUnknown@@PBX@Z:PROC ; CCmdTarget::GetInterfaceHook
EXTRN	?GetExtraConnectionPoints@CCmdTarget@@MAEHPAVCPtrArray@@@Z:PROC ; CCmdTarget::GetExtraConnectionPoints
EXTRN	?GetConnectionHook@CCmdTarget@@MAEPAUIConnectionPoint@@ABU_GUID@@@Z:PROC ; CCmdTarget::GetConnectionHook
EXTRN	?PreSubclassWindow@CWnd@@UAEXXZ:PROC		; CWnd::PreSubclassWindow
EXTRN	?Create@CWnd@@UAEHPB_W0KABUtagRECT@@PAV1@IPAUCCreateContext@@@Z:PROC ; CWnd::Create
EXTRN	?CreateEx@CWnd@@UAEHKPB_W0KABUtagRECT@@PAV1@IPAX@Z:PROC ; CWnd::CreateEx
EXTRN	?CreateEx@CWnd@@UAEHKPB_W0KHHHHPAUHWND__@@PAUHMENU__@@PAX@Z:PROC ; CWnd::CreateEx
EXTRN	?DestroyWindow@CWnd@@UAEHXZ:PROC		; CWnd::DestroyWindow
EXTRN	?PreCreateWindow@CWnd@@UAEHAAUtagCREATESTRUCTW@@@Z:PROC ; CWnd::PreCreateWindow
EXTRN	?CalcWindowRect@CWnd@@UAEXPAUtagRECT@@I@Z:PROC	; CWnd::CalcWindowRect
EXTRN	?GetMenu@CWnd@@UBEPAVCMenu@@XZ:PROC		; CWnd::GetMenu
EXTRN	?SetMenu@CWnd@@UAEHPAVCMenu@@@Z:PROC		; CWnd::SetMenu
EXTRN	?OnToolHitTest@CWnd@@UBEHVCPoint@@PAUtagTOOLINFOW@@@Z:PROC ; CWnd::OnToolHitTest
EXTRN	?GetScrollBarCtrl@CWnd@@UBEPAVCScrollBar@@H@Z:PROC ; CWnd::GetScrollBarCtrl
EXTRN	?WinHelpW@CWnd@@UAEXKI@Z:PROC			; CWnd::WinHelpW
EXTRN	?HtmlHelpW@CWnd@@UAEXKI@Z:PROC			; CWnd::HtmlHelpW
EXTRN	?WinHelpInternal@CWnd@@UAEXKI@Z:PROC		; CWnd::WinHelpInternal
EXTRN	?ContinueModal@CWnd@@UAEHXZ:PROC		; CWnd::ContinueModal
EXTRN	?EndModalLoop@CWnd@@UAEXH@Z:PROC		; CWnd::EndModalLoop
EXTRN	?OnDrawIconicThumbnailOrLivePreview@CWnd@@UAEXAAVCDC@@VCRect@@VCSize@@HAAH@Z:PROC ; CWnd::OnDrawIconicThumbnailOrLivePreview
EXTRN	?EnsureStdObj@CWnd@@UAEJXZ:PROC			; CWnd::EnsureStdObj
EXTRN	?get_accParent@CWnd@@UAEJPAPAUIDispatch@@@Z:PROC ; CWnd::get_accParent
EXTRN	?get_accChildCount@CWnd@@UAEJPAJ@Z:PROC		; CWnd::get_accChildCount
EXTRN	?get_accChild@CWnd@@UAEJUtagVARIANT@@PAPAUIDispatch@@@Z:PROC ; CWnd::get_accChild
EXTRN	?get_accName@CWnd@@UAEJUtagVARIANT@@PAPA_W@Z:PROC ; CWnd::get_accName
EXTRN	?get_accValue@CWnd@@UAEJUtagVARIANT@@PAPA_W@Z:PROC ; CWnd::get_accValue
EXTRN	?get_accDescription@CWnd@@UAEJUtagVARIANT@@PAPA_W@Z:PROC ; CWnd::get_accDescription
EXTRN	?get_accRole@CWnd@@UAEJUtagVARIANT@@PAU2@@Z:PROC ; CWnd::get_accRole
EXTRN	?get_accState@CWnd@@UAEJUtagVARIANT@@PAU2@@Z:PROC ; CWnd::get_accState
EXTRN	?get_accHelp@CWnd@@UAEJUtagVARIANT@@PAPA_W@Z:PROC ; CWnd::get_accHelp
EXTRN	?get_accHelpTopic@CWnd@@UAEJPAPA_WUtagVARIANT@@PAJ@Z:PROC ; CWnd::get_accHelpTopic
EXTRN	?get_accKeyboardShortcut@CWnd@@UAEJUtagVARIANT@@PAPA_W@Z:PROC ; CWnd::get_accKeyboardShortcut
EXTRN	?get_accFocus@CWnd@@UAEJPAUtagVARIANT@@@Z:PROC	; CWnd::get_accFocus
EXTRN	?get_accSelection@CWnd@@UAEJPAUtagVARIANT@@@Z:PROC ; CWnd::get_accSelection
EXTRN	?get_accDefaultAction@CWnd@@UAEJUtagVARIANT@@PAPA_W@Z:PROC ; CWnd::get_accDefaultAction
EXTRN	?accSelect@CWnd@@UAEJJUtagVARIANT@@@Z:PROC	; CWnd::accSelect
EXTRN	?accLocation@CWnd@@UAEJPAJ000UtagVARIANT@@@Z:PROC ; CWnd::accLocation
EXTRN	?accNavigate@CWnd@@UAEJJUtagVARIANT@@PAU2@@Z:PROC ; CWnd::accNavigate
EXTRN	?accHitTest@CWnd@@UAEJJJPAUtagVARIANT@@@Z:PROC	; CWnd::accHitTest
EXTRN	?accDoDefaultAction@CWnd@@UAEJUtagVARIANT@@@Z:PROC ; CWnd::accDoDefaultAction
EXTRN	?put_accName@CWnd@@UAEJUtagVARIANT@@PA_W@Z:PROC	; CWnd::put_accName
EXTRN	?put_accValue@CWnd@@UAEJUtagVARIANT@@PA_W@Z:PROC ; CWnd::put_accValue
EXTRN	?SetProxy@CWnd@@UAEJPAUIAccessibleProxy@@@Z:PROC ; CWnd::SetProxy
EXTRN	?CreateAccessibleProxy@CWnd@@UAEJIJPAJ@Z:PROC	; CWnd::CreateAccessibleProxy
EXTRN	?OnCommand@CDialogEx@@MAEHIJ@Z:PROC		; CDialogEx::OnCommand
EXTRN	?OnNotify@CWnd@@MAEHIJPAJ@Z:PROC		; CWnd::OnNotify
EXTRN	?GetSuperWndProcAddr@CWnd@@MAEPAP6GJPAUHWND__@@IIJ@ZXZ:PROC ; CWnd::GetSuperWndProcAddr
EXTRN	?BeginModalState@CWnd@@UAEXXZ:PROC		; CWnd::BeginModalState
EXTRN	?EndModalState@CWnd@@UAEXXZ:PROC		; CWnd::EndModalState
EXTRN	?PreTranslateMessage@CDialogEx@@UAEHPAUtagMSG@@@Z:PROC ; CDialogEx::PreTranslateMessage
EXTRN	?OnAmbientProperty@CWnd@@UAEHPAVCOleControlSite@@JPAUtagVARIANT@@@Z:PROC ; CWnd::OnAmbientProperty
EXTRN	?WindowProc@CWnd@@MAEJIIJ@Z:PROC		; CWnd::WindowProc
EXTRN	?OnWndMsg@CWnd@@MAEHIIJPAJ@Z:PROC		; CWnd::OnWndMsg
EXTRN	?DefWindowProcW@CWnd@@MAEJIIJ@Z:PROC		; CWnd::DefWindowProcW
EXTRN	?PostNcDestroy@CWnd@@MAEXXZ:PROC		; CWnd::PostNcDestroy
EXTRN	?OnChildNotify@CWnd@@MAEHIIJPAJ@Z:PROC		; CWnd::OnChildNotify
EXTRN	?OnTouchInputs@CWnd@@MAEHIPAUtagTOUCHINPUT@@@Z:PROC ; CWnd::OnTouchInputs
EXTRN	?OnTouchInput@CWnd@@MAEHVCPoint@@HHPAUtagTOUCHINPUT@@@Z:PROC ; CWnd::OnTouchInput
EXTRN	?GetGestureStatus@CWnd@@MAEKVCPoint@@@Z:PROC	; CWnd::GetGestureStatus
EXTRN	?OnGestureZoom@CWnd@@MAEHVCPoint@@J@Z:PROC	; CWnd::OnGestureZoom
EXTRN	?OnGesturePan@CWnd@@MAEHVCPoint@@0@Z:PROC	; CWnd::OnGesturePan
EXTRN	?OnGestureRotate@CWnd@@MAEHVCPoint@@N@Z:PROC	; CWnd::OnGestureRotate
EXTRN	?OnGestureTwoFingerTap@CWnd@@MAEHVCPoint@@@Z:PROC ; CWnd::OnGestureTwoFingerTap
EXTRN	?OnGesturePressAndTap@CWnd@@MAEHVCPoint@@J@Z:PROC ; CWnd::OnGesturePressAndTap
EXTRN	?CheckAutoCenter@CDialog@@UAEHXZ:PROC		; CDialog::CheckAutoCenter
EXTRN	?IsFrameWnd@CWnd@@UBEHXZ:PROC			; CWnd::IsFrameWnd
EXTRN	?CreateControlContainer@CWnd@@MAEHPAPAVCOleControlContainer@@@Z:PROC ; CWnd::CreateControlContainer
EXTRN	?CreateControlSite@CWnd@@MAEHPAVCOleControlContainer@@PAPAVCOleControlSite@@IABU_GUID@@@Z:PROC ; CWnd::CreateControlSite
EXTRN	?SetOccDialogInfo@CDialog@@MAEHPAU_AFX_OCC_DIALOG_INFO@@@Z:PROC ; CDialog::SetOccDialogInfo
EXTRN	?GetOccDialogInfo@CDialog@@MAEPAU_AFX_OCC_DIALOG_INFO@@XZ:PROC ; CDialog::GetOccDialogInfo
EXTRN	?Create@CDialog@@UAEHIPAVCWnd@@@Z:PROC		; CDialog::Create
EXTRN	?Create@CDialog@@UAEHPB_WPAVCWnd@@@Z:PROC	; CDialog::Create
EXTRN	?CreateIndirect@CDialog@@UAEHPAXPAVCWnd@@@Z:PROC ; CDialog::CreateIndirect
EXTRN	?CreateIndirect@CDialog@@UAEHPBUDLGTEMPLATE@@PAVCWnd@@PAX@Z:PROC ; CDialog::CreateIndirect
EXTRN	?DoModal@CDialog@@UAEHXZ:PROC			; CDialog::DoModal
EXTRN	?OnInitDialog@CDialog@@UAEHXZ:PROC		; CDialog::OnInitDialog
EXTRN	?OnSetFont@CDialog@@UAEXPAVCFont@@@Z:PROC	; CDialog::OnSetFont
EXTRN	?OnOK@CDialog@@MAEXXZ:PROC			; CDialog::OnOK
EXTRN	?OnCancel@CDialog@@MAEXXZ:PROC			; CDialog::OnCancel
EXTRN	?PreInitDialog@CDialog@@MAEXXZ:PROC		; CDialog::PreInitDialog
;	COMDAT ??_R2CObject@@8
; File d:\我的文档\visual studio 2010\projects\prohospital\prohospital\prohospitaldlg.cpp
rdata$r	SEGMENT
??_R2CObject@@8 DD FLAT:??_R1A@?0A@EA@CObject@@8	; CObject::`RTTI Base Class Array'
rdata$r	ENDS
;	COMDAT ??_R3CObject@@8
rdata$r	SEGMENT
??_R3CObject@@8 DD 00H					; CObject::`RTTI Class Hierarchy Descriptor'
	DD	00H
	DD	01H
	DD	FLAT:??_R2CObject@@8
rdata$r	ENDS
;	COMDAT ??_R0?AVCObject@@@8
_DATA	SEGMENT
??_R0?AVCObject@@@8 DD FLAT:??_7type_info@@6B@		; CObject `RTTI Type Descriptor'
	DD	00H
	DB	'.?AVCObject@@', 00H
_DATA	ENDS
;	COMDAT ??_R1A@?0A@EA@CObject@@8
rdata$r	SEGMENT
??_R1A@?0A@EA@CObject@@8 DD FLAT:??_R0?AVCObject@@@8	; CObject::`RTTI Base Class Descriptor at (0,-1,0,64)'
	DD	00H
	DD	00H
	DD	0ffffffffH
	DD	00H
	DD	040H
	DD	FLAT:??_R3CObject@@8
rdata$r	ENDS
;	COMDAT ??_R2CCmdTarget@@8
rdata$r	SEGMENT
??_R2CCmdTarget@@8 DD FLAT:??_R1A@?0A@EA@CCmdTarget@@8	; CCmdTarget::`RTTI Base Class Array'
	DD	FLAT:??_R1A@?0A@EA@CObject@@8
rdata$r	ENDS
;	COMDAT ??_R3CCmdTarget@@8
rdata$r	SEGMENT
??_R3CCmdTarget@@8 DD 00H				; CCmdTarget::`RTTI Class Hierarchy Descriptor'
	DD	00H
	DD	02H
	DD	FLAT:??_R2CCmdTarget@@8
rdata$r	ENDS
;	COMDAT ??_R0?AVCCmdTarget@@@8
_DATA	SEGMENT
??_R0?AVCCmdTarget@@@8 DD FLAT:??_7type_info@@6B@	; CCmdTarget `RTTI Type Descriptor'
	DD	00H
	DB	'.?AVCCmdTarget@@', 00H
_DATA	ENDS
;	COMDAT ??_R1A@?0A@EA@CCmdTarget@@8
rdata$r	SEGMENT
??_R1A@?0A@EA@CCmdTarget@@8 DD FLAT:??_R0?AVCCmdTarget@@@8 ; CCmdTarget::`RTTI Base Class Descriptor at (0,-1,0,64)'
	DD	01H
	DD	00H
	DD	0ffffffffH
	DD	00H
	DD	040H
	DD	FLAT:??_R3CCmdTarget@@8
rdata$r	ENDS
;	COMDAT ??_R2CWnd@@8
rdata$r	SEGMENT
??_R2CWnd@@8 DD	FLAT:??_R1A@?0A@EA@CWnd@@8		; CWnd::`RTTI Base Class Array'
	DD	FLAT:??_R1A@?0A@EA@CCmdTarget@@8
	DD	FLAT:??_R1A@?0A@EA@CObject@@8
rdata$r	ENDS
;	COMDAT ??_R3CWnd@@8
rdata$r	SEGMENT
??_R3CWnd@@8 DD	00H					; CWnd::`RTTI Class Hierarchy Descriptor'
	DD	00H
	DD	03H
	DD	FLAT:??_R2CWnd@@8
rdata$r	ENDS
;	COMDAT ??_R0?AVCWnd@@@8
_DATA	SEGMENT
??_R0?AVCWnd@@@8 DD FLAT:??_7type_info@@6B@		; CWnd `RTTI Type Descriptor'
	DD	00H
	DB	'.?AVCWnd@@', 00H
_DATA	ENDS
;	COMDAT ??_R1A@?0A@EA@CWnd@@8
rdata$r	SEGMENT
??_R1A@?0A@EA@CWnd@@8 DD FLAT:??_R0?AVCWnd@@@8		; CWnd::`RTTI Base Class Descriptor at (0,-1,0,64)'
	DD	02H
	DD	00H
	DD	0ffffffffH
	DD	00H
	DD	040H
	DD	FLAT:??_R3CWnd@@8
rdata$r	ENDS
;	COMDAT ??_R2CDialog@@8
rdata$r	SEGMENT
??_R2CDialog@@8 DD FLAT:??_R1A@?0A@EA@CDialog@@8	; CDialog::`RTTI Base Class Array'
	DD	FLAT:??_R1A@?0A@EA@CWnd@@8
	DD	FLAT:??_R1A@?0A@EA@CCmdTarget@@8
	DD	FLAT:??_R1A@?0A@EA@CObject@@8
rdata$r	ENDS
;	COMDAT ??_R3CDialog@@8
rdata$r	SEGMENT
??_R3CDialog@@8 DD 00H					; CDialog::`RTTI Class Hierarchy Descriptor'
	DD	00H
	DD	04H
	DD	FLAT:??_R2CDialog@@8
rdata$r	ENDS
;	COMDAT ??_R0?AVCDialog@@@8
_DATA	SEGMENT
??_R0?AVCDialog@@@8 DD FLAT:??_7type_info@@6B@		; CDialog `RTTI Type Descriptor'
	DD	00H
	DB	'.?AVCDialog@@', 00H
_DATA	ENDS
;	COMDAT ??_R1A@?0A@EA@CDialog@@8
rdata$r	SEGMENT
??_R1A@?0A@EA@CDialog@@8 DD FLAT:??_R0?AVCDialog@@@8	; CDialog::`RTTI Base Class Descriptor at (0,-1,0,64)'
	DD	03H
	DD	00H
	DD	0ffffffffH
	DD	00H
	DD	040H
	DD	FLAT:??_R3CDialog@@8
rdata$r	ENDS
;	COMDAT ??_R2CDialogEx@@8
rdata$r	SEGMENT
??_R2CDialogEx@@8 DD FLAT:??_R1A@?0A@EA@CDialogEx@@8	; CDialogEx::`RTTI Base Class Array'
	DD	FLAT:??_R1A@?0A@EA@CDialog@@8
	DD	FLAT:??_R1A@?0A@EA@CWnd@@8
	DD	FLAT:??_R1A@?0A@EA@CCmdTarget@@8
	DD	FLAT:??_R1A@?0A@EA@CObject@@8
rdata$r	ENDS
;	COMDAT ??_R3CDialogEx@@8
rdata$r	SEGMENT
??_R3CDialogEx@@8 DD 00H				; CDialogEx::`RTTI Class Hierarchy Descriptor'
	DD	00H
	DD	05H
	DD	FLAT:??_R2CDialogEx@@8
rdata$r	ENDS
;	COMDAT ??_R0?AVCDialogEx@@@8
_DATA	SEGMENT
??_R0?AVCDialogEx@@@8 DD FLAT:??_7type_info@@6B@	; CDialogEx `RTTI Type Descriptor'
	DD	00H
	DB	'.?AVCDialogEx@@', 00H
_DATA	ENDS
;	COMDAT ??_R1A@?0A@EA@CDialogEx@@8
rdata$r	SEGMENT
??_R1A@?0A@EA@CDialogEx@@8 DD FLAT:??_R0?AVCDialogEx@@@8 ; CDialogEx::`RTTI Base Class Descriptor at (0,-1,0,64)'
	DD	04H
	DD	00H
	DD	0ffffffffH
	DD	00H
	DD	040H
	DD	FLAT:??_R3CDialogEx@@8
rdata$r	ENDS
;	COMDAT ??_R1A@?0A@EA@CAboutDlg@@8
rdata$r	SEGMENT
??_R1A@?0A@EA@CAboutDlg@@8 DD FLAT:??_R0?AVCAboutDlg@@@8 ; CAboutDlg::`RTTI Base Class Descriptor at (0,-1,0,64)'
	DD	05H
	DD	00H
	DD	0ffffffffH
	DD	00H
	DD	040H
	DD	FLAT:??_R3CAboutDlg@@8
rdata$r	ENDS
;	COMDAT ??_R2CAboutDlg@@8
rdata$r	SEGMENT
??_R2CAboutDlg@@8 DD FLAT:??_R1A@?0A@EA@CAboutDlg@@8	; CAboutDlg::`RTTI Base Class Array'
	DD	FLAT:??_R1A@?0A@EA@CDialogEx@@8
	DD	FLAT:??_R1A@?0A@EA@CDialog@@8
	DD	FLAT:??_R1A@?0A@EA@CWnd@@8
	DD	FLAT:??_R1A@?0A@EA@CCmdTarget@@8
	DD	FLAT:??_R1A@?0A@EA@CObject@@8
rdata$r	ENDS
;	COMDAT ??_R3CAboutDlg@@8
rdata$r	SEGMENT
??_R3CAboutDlg@@8 DD 00H				; CAboutDlg::`RTTI Class Hierarchy Descriptor'
	DD	00H
	DD	06H
	DD	FLAT:??_R2CAboutDlg@@8
rdata$r	ENDS
;	COMDAT ??_R0?AVCAboutDlg@@@8
_DATA	SEGMENT
??_R0?AVCAboutDlg@@@8 DD FLAT:??_7type_info@@6B@	; CAboutDlg `RTTI Type Descriptor'
	DD	00H
	DB	'.?AVCAboutDlg@@', 00H
_DATA	ENDS
;	COMDAT ??_R4CAboutDlg@@6B@
rdata$r	SEGMENT
??_R4CAboutDlg@@6B@ DD 00H				; CAboutDlg::`RTTI Complete Object Locator'
	DD	00H
	DD	00H
	DD	FLAT:??_R0?AVCAboutDlg@@@8
	DD	FLAT:??_R3CAboutDlg@@8
rdata$r	ENDS
;	COMDAT ??_7CAboutDlg@@6B@
CONST	SEGMENT
??_7CAboutDlg@@6B@ DD FLAT:??_R4CAboutDlg@@6B@		; CAboutDlg::`vftable'
	DD	FLAT:?GetRuntimeClass@CDialogEx@@UBEPAUCRuntimeClass@@XZ
	DD	FLAT:??_ECAboutDlg@@UAEPAXI@Z
	DD	FLAT:?Serialize@CObject@@UAEXAAVCArchive@@@Z
	DD	FLAT:?AssertValid@CDialog@@UBEXXZ
	DD	FLAT:?Dump@CDialog@@UBEXAAVCDumpContext@@@Z
	DD	FLAT:?OnCmdMsg@CDialog@@UAEHIHPAXPAUAFX_CMDHANDLERINFO@@@Z
	DD	FLAT:?OnFinalRelease@CWnd@@UAEXXZ
	DD	FLAT:?IsInvokeAllowed@CCmdTarget@@UAEHJ@Z
	DD	FLAT:?GetDispatchIID@CCmdTarget@@UAEHPAU_GUID@@@Z
	DD	FLAT:?GetTypeInfoCount@CCmdTarget@@UAEIXZ
	DD	FLAT:?GetTypeLibCache@CCmdTarget@@UAEPAVCTypeLibCache@@XZ
	DD	FLAT:?GetTypeLib@CCmdTarget@@UAEJKPAPAUITypeLib@@@Z
	DD	FLAT:?GetMessageMap@CAboutDlg@@MBEPBUAFX_MSGMAP@@XZ
	DD	FLAT:?GetCommandMap@CCmdTarget@@MBEPBUAFX_OLECMDMAP@@XZ
	DD	FLAT:?GetDispatchMap@CCmdTarget@@MBEPBUAFX_DISPMAP@@XZ
	DD	FLAT:?GetConnectionMap@CCmdTarget@@MBEPBUAFX_CONNECTIONMAP@@XZ
	DD	FLAT:?GetInterfaceMap@CWnd@@MBEPBUAFX_INTERFACEMAP@@XZ
	DD	FLAT:?GetEventSinkMap@CCmdTarget@@MBEPBUAFX_EVENTSINKMAP@@XZ
	DD	FLAT:?OnCreateAggregates@CCmdTarget@@UAEHXZ
	DD	FLAT:?GetInterfaceHook@CCmdTarget@@UAEPAUIUnknown@@PBX@Z
	DD	FLAT:?GetExtraConnectionPoints@CCmdTarget@@MAEHPAVCPtrArray@@@Z
	DD	FLAT:?GetConnectionHook@CCmdTarget@@MAEPAUIConnectionPoint@@ABU_GUID@@@Z
	DD	FLAT:?PreSubclassWindow@CWnd@@UAEXXZ
	DD	FLAT:?Create@CWnd@@UAEHPB_W0KABUtagRECT@@PAV1@IPAUCCreateContext@@@Z
	DD	FLAT:?CreateEx@CWnd@@UAEHKPB_W0KABUtagRECT@@PAV1@IPAX@Z
	DD	FLAT:?CreateEx@CWnd@@UAEHKPB_W0KHHHHPAUHWND__@@PAUHMENU__@@PAX@Z
	DD	FLAT:?DestroyWindow@CWnd@@UAEHXZ
	DD	FLAT:?PreCreateWindow@CWnd@@UAEHAAUtagCREATESTRUCTW@@@Z
	DD	FLAT:?CalcWindowRect@CWnd@@UAEXPAUtagRECT@@I@Z
	DD	FLAT:?GetMenu@CWnd@@UBEPAVCMenu@@XZ
	DD	FLAT:?SetMenu@CWnd@@UAEHPAVCMenu@@@Z
	DD	FLAT:?OnToolHitTest@CWnd@@UBEHVCPoint@@PAUtagTOOLINFOW@@@Z
	DD	FLAT:?GetScrollBarCtrl@CWnd@@UBEPAVCScrollBar@@H@Z
	DD	FLAT:?WinHelpW@CWnd@@UAEXKI@Z
	DD	FLAT:?HtmlHelpW@CWnd@@UAEXKI@Z
	DD	FLAT:?WinHelpInternal@CWnd@@UAEXKI@Z
	DD	FLAT:?ContinueModal@CWnd@@UAEHXZ
	DD	FLAT:?EndModalLoop@CWnd@@UAEXH@Z
	DD	FLAT:?OnDrawIconicThumbnailOrLivePreview@CWnd@@UAEXAAVCDC@@VCRect@@VCSize@@HAAH@Z
	DD	FLAT:?EnsureStdObj@CWnd@@UAEJXZ
	DD	FLAT:?get_accParent@CWnd@@UAEJPAPAUIDispatch@@@Z
	DD	FLAT:?get_accChildCount@CWnd@@UAEJPAJ@Z
	DD	FLAT:?get_accChild@CWnd@@UAEJUtagVARIANT@@PAPAUIDispatch@@@Z
	DD	FLAT:?get_accName@CWnd@@UAEJUtagVARIANT@@PAPA_W@Z
	DD	FLAT:?get_accValue@CWnd@@UAEJUtagVARIANT@@PAPA_W@Z
	DD	FLAT:?get_accDescription@CWnd@@UAEJUtagVARIANT@@PAPA_W@Z
	DD	FLAT:?get_accRole@CWnd@@UAEJUtagVARIANT@@PAU2@@Z
	DD	FLAT:?get_accState@CWnd@@UAEJUtagVARIANT@@PAU2@@Z
	DD	FLAT:?get_accHelp@CWnd@@UAEJUtagVARIANT@@PAPA_W@Z
	DD	FLAT:?get_accHelpTopic@CWnd@@UAEJPAPA_WUtagVARIANT@@PAJ@Z
	DD	FLAT:?get_accKeyboardShortcut@CWnd@@UAEJUtagVARIANT@@PAPA_W@Z
	DD	FLAT:?get_accFocus@CWnd@@UAEJPAUtagVARIANT@@@Z
	DD	FLAT:?get_accSelection@CWnd@@UAEJPAUtagVARIANT@@@Z
	DD	FLAT:?get_accDefaultAction@CWnd@@UAEJUtagVARIANT@@PAPA_W@Z
	DD	FLAT:?accSelect@CWnd@@UAEJJUtagVARIANT@@@Z
	DD	FLAT:?accLocation@CWnd@@UAEJPAJ000UtagVARIANT@@@Z
	DD	FLAT:?accNavigate@CWnd@@UAEJJUtagVARIANT@@PAU2@@Z
	DD	FLAT:?accHitTest@CWnd@@UAEJJJPAUtagVARIANT@@@Z
	DD	FLAT:?accDoDefaultAction@CWnd@@UAEJUtagVARIANT@@@Z
	DD	FLAT:?put_accName@CWnd@@UAEJUtagVARIANT@@PA_W@Z
	DD	FLAT:?put_accValue@CWnd@@UAEJUtagVARIANT@@PA_W@Z
	DD	FLAT:?SetProxy@CWnd@@UAEJPAUIAccessibleProxy@@@Z
	DD	FLAT:?CreateAccessibleProxy@CWnd@@UAEJIJPAJ@Z
	DD	FLAT:?OnCommand@CDialogEx@@MAEHIJ@Z
	DD	FLAT:?OnNotify@CWnd@@MAEHIJPAJ@Z
	DD	FLAT:?GetSuperWndProcAddr@CWnd@@MAEPAP6GJPAUHWND__@@IIJ@ZXZ
	DD	FLAT:?DoDataExchange@CAboutDlg@@MAEXPAVCDataExchange@@@Z
	DD	FLAT:?BeginModalState@CWnd@@UAEXXZ
	DD	FLAT:?EndModalState@CWnd@@UAEXXZ
	DD	FLAT:?PreTranslateMessage@CDialogEx@@UAEHPAUtagMSG@@@Z
	DD	FLAT:?OnAmbientProperty@CWnd@@UAEHPAVCOleControlSite@@JPAUtagVARIANT@@@Z
	DD	FLAT:?WindowProc@CWnd@@MAEJIIJ@Z
	DD	FLAT:?OnWndMsg@CWnd@@MAEHIIJPAJ@Z
	DD	FLAT:?DefWindowProcW@CWnd@@MAEJIIJ@Z
	DD	FLAT:?PostNcDestroy@CWnd@@MAEXXZ
	DD	FLAT:?OnChildNotify@CWnd@@MAEHIIJPAJ@Z
	DD	FLAT:?OnTouchInputs@CWnd@@MAEHIPAUtagTOUCHINPUT@@@Z
	DD	FLAT:?OnTouchInput@CWnd@@MAEHVCPoint@@HHPAUtagTOUCHINPUT@@@Z
	DD	FLAT:?GetGestureStatus@CWnd@@MAEKVCPoint@@@Z
	DD	FLAT:?OnGestureZoom@CWnd@@MAEHVCPoint@@J@Z
	DD	FLAT:?OnGesturePan@CWnd@@MAEHVCPoint@@0@Z
	DD	FLAT:?OnGestureRotate@CWnd@@MAEHVCPoint@@N@Z
	DD	FLAT:?OnGestureTwoFingerTap@CWnd@@MAEHVCPoint@@@Z
	DD	FLAT:?OnGesturePressAndTap@CWnd@@MAEHVCPoint@@J@Z
	DD	FLAT:?CheckAutoCenter@CDialog@@UAEHXZ
	DD	FLAT:?IsFrameWnd@CWnd@@UBEHXZ
	DD	FLAT:?CreateControlContainer@CWnd@@MAEHPAPAVCOleControlContainer@@@Z
	DD	FLAT:?CreateControlSite@CWnd@@MAEHPAVCOleControlContainer@@PAPAVCOleControlSite@@IABU_GUID@@@Z
	DD	FLAT:?SetOccDialogInfo@CDialog@@MAEHPAU_AFX_OCC_DIALOG_INFO@@@Z
	DD	FLAT:?GetOccDialogInfo@CDialog@@MAEPAU_AFX_OCC_DIALOG_INFO@@XZ
	DD	FLAT:?Create@CDialog@@UAEHIPAVCWnd@@@Z
	DD	FLAT:?Create@CDialog@@UAEHPB_WPAVCWnd@@@Z
	DD	FLAT:?CreateIndirect@CDialog@@UAEHPAXPAVCWnd@@@Z
	DD	FLAT:?CreateIndirect@CDialog@@UAEHPBUDLGTEMPLATE@@PAVCWnd@@PAX@Z
	DD	FLAT:?DoModal@CDialog@@UAEHXZ
	DD	FLAT:?OnInitDialog@CDialog@@UAEHXZ
	DD	FLAT:?OnSetFont@CDialog@@UAEXPAVCFont@@@Z
	DD	FLAT:?OnOK@CDialog@@MAEXXZ
	DD	FLAT:?OnCancel@CDialog@@MAEXXZ
	DD	FLAT:?PreInitDialog@CDialog@@MAEXXZ
CONST	ENDS
;	COMDAT rtc$TMZ
rtc$TMZ	SEGMENT
__RTC_Shutdown.rtc$TMZ DD FLAT:__RTC_Shutdown
rtc$TMZ	ENDS
;	COMDAT rtc$IMZ
rtc$IMZ	SEGMENT
__RTC_InitBase.rtc$IMZ DD FLAT:__RTC_InitBase
; Function compile flags: /Odtp /RTCsu /ZI
rtc$IMZ	ENDS
;	COMDAT ??0CAboutDlg@@QAE@XZ
_TEXT	SEGMENT
_this$ = -8						; size = 4
??0CAboutDlg@@QAE@XZ PROC				; CAboutDlg::CAboutDlg, COMDAT
; _this$ = ecx
; Line 34
	push	ebp
	mov	ebp, esp
	sub	esp, 204				; 000000ccH
	push	ebx
	push	esi
	push	edi
	push	ecx
	lea	edi, DWORD PTR [ebp-204]
	mov	ecx, 51					; 00000033H
	mov	eax, -858993460				; ccccccccH
	rep stosd
	pop	ecx
	mov	DWORD PTR _this$[ebp], ecx
	push	0
	push	100					; 00000064H
	mov	ecx, DWORD PTR _this$[ebp]
	call	??0CDialogEx@@QAE@IPAVCWnd@@@Z		; CDialogEx::CDialogEx
	mov	eax, DWORD PTR _this$[ebp]
	mov	DWORD PTR [eax], OFFSET ??_7CAboutDlg@@6B@
; Line 35
	mov	eax, DWORD PTR _this$[ebp]
	pop	edi
	pop	esi
	pop	ebx
	add	esp, 204				; 000000ccH
	cmp	ebp, esp
	call	__RTC_CheckEsp
	mov	esp, ebp
	pop	ebp
	ret	0
??0CAboutDlg@@QAE@XZ ENDP				; CAboutDlg::CAboutDlg
_TEXT	ENDS
PUBLIC	??1CAboutDlg@@UAE@XZ				; CAboutDlg::~CAboutDlg
EXTRN	??3CObject@@SGXPAX@Z:PROC			; CObject::operator delete
; Function compile flags: /Odtp /RTCsu /ZI
;	COMDAT ??_GCAboutDlg@@UAEPAXI@Z
_TEXT	SEGMENT
_this$ = -8						; size = 4
___flags$ = 8						; size = 4
??_GCAboutDlg@@UAEPAXI@Z PROC				; CAboutDlg::`scalar deleting destructor', COMDAT
; _this$ = ecx
	push	ebp
	mov	ebp, esp
	sub	esp, 204				; 000000ccH
	push	ebx
	push	esi
	push	edi
	push	ecx
	lea	edi, DWORD PTR [ebp-204]
	mov	ecx, 51					; 00000033H
	mov	eax, -858993460				; ccccccccH
	rep stosd
	pop	ecx
	mov	DWORD PTR _this$[ebp], ecx
	mov	ecx, DWORD PTR _this$[ebp]
	call	??1CAboutDlg@@UAE@XZ
	mov	eax, DWORD PTR ___flags$[ebp]
	and	eax, 1
	je	SHORT $LN1@scalar
	mov	eax, DWORD PTR _this$[ebp]
	push	eax
	call	??3CObject@@SGXPAX@Z			; CObject::operator delete
$LN1@scalar:
	mov	eax, DWORD PTR _this$[ebp]
	pop	edi
	pop	esi
	pop	ebx
	add	esp, 204				; 000000ccH
	cmp	ebp, esp
	call	__RTC_CheckEsp
	mov	esp, ebp
	pop	ebp
	ret	4
??_GCAboutDlg@@UAEPAXI@Z ENDP				; CAboutDlg::`scalar deleting destructor'
_TEXT	ENDS
PUBLIC	??1CDialogEx@@UAE@XZ				; CDialogEx::~CDialogEx
; Function compile flags: /Odtp /RTCsu /ZI
;	COMDAT ??1CAboutDlg@@UAE@XZ
_TEXT	SEGMENT
_this$ = -8						; size = 4
??1CAboutDlg@@UAE@XZ PROC				; CAboutDlg::~CAboutDlg, COMDAT
; _this$ = ecx
	push	ebp
	mov	ebp, esp
	sub	esp, 204				; 000000ccH
	push	ebx
	push	esi
	push	edi
	push	ecx
	lea	edi, DWORD PTR [ebp-204]
	mov	ecx, 51					; 00000033H
	mov	eax, -858993460				; ccccccccH
	rep stosd
	pop	ecx
	mov	DWORD PTR _this$[ebp], ecx
	mov	ecx, DWORD PTR _this$[ebp]
	call	??1CDialogEx@@UAE@XZ
	pop	edi
	pop	esi
	pop	ebx
	add	esp, 204				; 000000ccH
	cmp	ebp, esp
	call	__RTC_CheckEsp
	mov	esp, ebp
	pop	ebp
	ret	0
??1CAboutDlg@@UAE@XZ ENDP				; CAboutDlg::~CAboutDlg
_TEXT	ENDS
EXTRN	??1CDialog@@UAE@XZ:PROC				; CDialog::~CDialog
EXTRN	??1CBrush@@UAE@XZ:PROC				; CBrush::~CBrush
EXTRN	??1CDialogImpl@@MAE@XZ:PROC			; CDialogImpl::~CDialogImpl
EXTRN	___security_cookie:DWORD
EXTRN	___CxxFrameHandler3:PROC
EXTRN	@__security_check_cookie@4:PROC
;	COMDAT xdata$x
xdata$x	SEGMENT
__unwindtable$??1CDialogEx@@UAE@XZ DD 0ffffffffH
	DD	FLAT:__unwindfunclet$??1CDialogEx@@UAE@XZ$0
	DD	00H
	DD	FLAT:__unwindfunclet$??1CDialogEx@@UAE@XZ$1
__ehfuncinfo$??1CDialogEx@@UAE@XZ DD 019930522H
	DD	02H
	DD	FLAT:__unwindtable$??1CDialogEx@@UAE@XZ
	DD	2 DUP(00H)
	DD	2 DUP(00H)
	DD	00H
	DD	01H
; Function compile flags: /Odtp /RTCsu /ZI
xdata$x	ENDS
;	COMDAT ??1CDialogEx@@UAE@XZ
_TEXT	SEGMENT
_this$ = -20						; size = 4
__$EHRec$ = -12						; size = 12
??1CDialogEx@@UAE@XZ PROC				; CDialogEx::~CDialogEx, COMDAT
; _this$ = ecx
	push	ebp
	mov	ebp, esp
	push	-1
	push	__ehhandler$??1CDialogEx@@UAE@XZ
	mov	eax, DWORD PTR fs:0
	push	eax
	sub	esp, 204				; 000000ccH
	push	ebx
	push	esi
	push	edi
	push	ecx
	lea	edi, DWORD PTR [ebp-216]
	mov	ecx, 51					; 00000033H
	mov	eax, -858993460				; ccccccccH
	rep stosd
	pop	ecx
	mov	eax, DWORD PTR ___security_cookie
	xor	eax, ebp
	push	eax
	lea	eax, DWORD PTR __$EHRec$[ebp]
	mov	DWORD PTR fs:0, eax
	mov	DWORD PTR _this$[ebp], ecx
	mov	DWORD PTR __$EHRec$[ebp+8], 1
	mov	ecx, DWORD PTR _this$[ebp]
	add	ecx, 172				; 000000acH
	call	??1CDialogImpl@@MAE@XZ			; CDialogImpl::~CDialogImpl
	mov	BYTE PTR __$EHRec$[ebp+8], 0
	mov	ecx, DWORD PTR _this$[ebp]
	add	ecx, 160				; 000000a0H
	call	??1CBrush@@UAE@XZ			; CBrush::~CBrush
	mov	DWORD PTR __$EHRec$[ebp+8], -1
	mov	ecx, DWORD PTR _this$[ebp]
	call	??1CDialog@@UAE@XZ			; CDialog::~CDialog
	mov	ecx, DWORD PTR __$EHRec$[ebp]
	mov	DWORD PTR fs:0, ecx
	pop	ecx
	pop	edi
	pop	esi
	pop	ebx
	add	esp, 216				; 000000d8H
	cmp	ebp, esp
	call	__RTC_CheckEsp
	mov	esp, ebp
	pop	ebp
	ret	0
_TEXT	ENDS
;	COMDAT text$x
text$x	SEGMENT
__unwindfunclet$??1CDialogEx@@UAE@XZ$0:
	mov	ecx, DWORD PTR _this$[ebp]
	jmp	??1CDialog@@UAE@XZ			; CDialog::~CDialog
__unwindfunclet$??1CDialogEx@@UAE@XZ$1:
	mov	ecx, DWORD PTR _this$[ebp]
	add	ecx, 160				; 000000a0H
	jmp	??1CBrush@@UAE@XZ			; CBrush::~CBrush
__ehhandler$??1CDialogEx@@UAE@XZ:
	mov	edx, DWORD PTR [esp+8]
	lea	eax, DWORD PTR [edx+12]
	mov	ecx, DWORD PTR [edx-220]
	xor	ecx, eax
	call	@__security_check_cookie@4
	mov	eax, OFFSET __ehfuncinfo$??1CDialogEx@@UAE@XZ
	jmp	___CxxFrameHandler3
text$x	ENDS
??1CDialogEx@@UAE@XZ ENDP				; CDialogEx::~CDialogEx
EXTRN	?DoDataExchange@CWnd@@MAEXPAVCDataExchange@@@Z:PROC ; CWnd::DoDataExchange
; Function compile flags: /Odtp /RTCsu /ZI
;	COMDAT ?DoDataExchange@CAboutDlg@@MAEXPAVCDataExchange@@@Z
_TEXT	SEGMENT
_this$ = -8						; size = 4
_pDX$ = 8						; size = 4
?DoDataExchange@CAboutDlg@@MAEXPAVCDataExchange@@@Z PROC ; CAboutDlg::DoDataExchange, COMDAT
; _this$ = ecx
; Line 38
	push	ebp
	mov	ebp, esp
	sub	esp, 204				; 000000ccH
	push	ebx
	push	esi
	push	edi
	push	ecx
	lea	edi, DWORD PTR [ebp-204]
	mov	ecx, 51					; 00000033H
	mov	eax, -858993460				; ccccccccH
	rep stosd
	pop	ecx
	mov	DWORD PTR _this$[ebp], ecx
; Line 39
	mov	eax, DWORD PTR _pDX$[ebp]
	push	eax
	mov	ecx, DWORD PTR _this$[ebp]
	call	?DoDataExchange@CWnd@@MAEXPAVCDataExchange@@@Z ; CWnd::DoDataExchange
; Line 40
	pop	edi
	pop	esi
	pop	ebx
	add	esp, 204				; 000000ccH
	cmp	ebp, esp
	call	__RTC_CheckEsp
	mov	esp, ebp
	pop	ebp
	ret	4
?DoDataExchange@CAboutDlg@@MAEXPAVCDataExchange@@@Z ENDP ; CAboutDlg::DoDataExchange
_TEXT	ENDS
PUBLIC	?GetThisMessageMap@CAboutDlg@@KGPBUAFX_MSGMAP@@XZ ; CAboutDlg::GetThisMessageMap
; Function compile flags: /Odtp /RTCsu /ZI
;	COMDAT ?GetMessageMap@CAboutDlg@@MBEPBUAFX_MSGMAP@@XZ
_TEXT	SEGMENT
_this$ = -8						; size = 4
?GetMessageMap@CAboutDlg@@MBEPBUAFX_MSGMAP@@XZ PROC	; CAboutDlg::GetMessageMap, COMDAT
; _this$ = ecx
; Line 42
	push	ebp
	mov	ebp, esp
	sub	esp, 204				; 000000ccH
	push	ebx
	push	esi
	push	edi
	push	ecx
	lea	edi, DWORD PTR [ebp-204]
	mov	ecx, 51					; 00000033H
	mov	eax, -858993460				; ccccccccH
	rep stosd
	pop	ecx
	mov	DWORD PTR _this$[ebp], ecx
	call	?GetThisMessageMap@CAboutDlg@@KGPBUAFX_MSGMAP@@XZ ; CAboutDlg::GetThisMessageMap
	pop	edi
	pop	esi
	pop	ebx
	add	esp, 204				; 000000ccH
	cmp	ebp, esp
	call	__RTC_CheckEsp
	mov	esp, ebp
	pop	ebp
	ret	0
?GetMessageMap@CAboutDlg@@MBEPBUAFX_MSGMAP@@XZ ENDP	; CAboutDlg::GetMessageMap
; Function compile flags: /Odtp /RTCsu /ZI
_TEXT	ENDS
;	COMDAT ?GetThisMessageMap@CAboutDlg@@KGPBUAFX_MSGMAP@@XZ
_TEXT	SEGMENT
?GetThisMessageMap@CAboutDlg@@KGPBUAFX_MSGMAP@@XZ PROC	; CAboutDlg::GetThisMessageMap, COMDAT
; Line 42
	push	ebp
	mov	ebp, esp
	sub	esp, 192				; 000000c0H
	push	ebx
	push	esi
	push	edi
	lea	edi, DWORD PTR [ebp-192]
	mov	ecx, 48					; 00000030H
	mov	eax, -858993460				; ccccccccH
	rep stosd
; Line 43
	mov	eax, OFFSET ?messageMap@?1??GetThisMessageMap@CAboutDlg@@KGPBUAFX_MSGMAP@@XZ@4U3@B
	pop	edi
	pop	esi
	pop	ebx
	mov	esp, ebp
	pop	ebp
	ret	0
?GetThisMessageMap@CAboutDlg@@KGPBUAFX_MSGMAP@@XZ ENDP	; CAboutDlg::GetThisMessageMap
_TEXT	ENDS
PUBLIC	??_7CProHospitalDlg@@6B@			; CProHospitalDlg::`vftable'
PUBLIC	??0CProHospitalDlg@@QAE@PAVCWnd@@@Z		; CProHospitalDlg::CProHospitalDlg
PUBLIC	??_R4CProHospitalDlg@@6B@			; CProHospitalDlg::`RTTI Complete Object Locator'
PUBLIC	??_R0?AVCProHospitalDlg@@@8			; CProHospitalDlg `RTTI Type Descriptor'
PUBLIC	??_R3CProHospitalDlg@@8				; CProHospitalDlg::`RTTI Class Hierarchy Descriptor'
PUBLIC	??_R2CProHospitalDlg@@8				; CProHospitalDlg::`RTTI Base Class Array'
PUBLIC	??_R1A@?0A@EA@CProHospitalDlg@@8		; CProHospitalDlg::`RTTI Base Class Descriptor at (0,-1,0,64)'
PUBLIC	?GetMessageMap@CProHospitalDlg@@MBEPBUAFX_MSGMAP@@XZ ; CProHospitalDlg::GetMessageMap
PUBLIC	?DoDataExchange@CProHospitalDlg@@MAEXPAVCDataExchange@@@Z ; CProHospitalDlg::DoDataExchange
PUBLIC	?OnInitDialog@CProHospitalDlg@@MAEHXZ		; CProHospitalDlg::OnInitDialog
EXTRN	?LoadIconW@CWinApp@@QBEPAUHICON__@@I@Z:PROC	; CWinApp::LoadIconW
EXTRN	?AfxGetApp@@YGPAVCWinApp@@XZ:PROC		; AfxGetApp
EXTRN	??_ECProHospitalDlg@@UAEPAXI@Z:PROC		; CProHospitalDlg::`vector deleting destructor'
;	COMDAT ??_R1A@?0A@EA@CProHospitalDlg@@8
rdata$r	SEGMENT
??_R1A@?0A@EA@CProHospitalDlg@@8 DD FLAT:??_R0?AVCProHospitalDlg@@@8 ; CProHospitalDlg::`RTTI Base Class Descriptor at (0,-1,0,64)'
	DD	05H
	DD	00H
	DD	0ffffffffH
	DD	00H
	DD	040H
	DD	FLAT:??_R3CProHospitalDlg@@8
rdata$r	ENDS
;	COMDAT ??_R2CProHospitalDlg@@8
rdata$r	SEGMENT
??_R2CProHospitalDlg@@8 DD FLAT:??_R1A@?0A@EA@CProHospitalDlg@@8 ; CProHospitalDlg::`RTTI Base Class Array'
	DD	FLAT:??_R1A@?0A@EA@CDialogEx@@8
	DD	FLAT:??_R1A@?0A@EA@CDialog@@8
	DD	FLAT:??_R1A@?0A@EA@CWnd@@8
	DD	FLAT:??_R1A@?0A@EA@CCmdTarget@@8
	DD	FLAT:??_R1A@?0A@EA@CObject@@8
rdata$r	ENDS
;	COMDAT ??_R3CProHospitalDlg@@8
rdata$r	SEGMENT
??_R3CProHospitalDlg@@8 DD 00H				; CProHospitalDlg::`RTTI Class Hierarchy Descriptor'
	DD	00H
	DD	06H
	DD	FLAT:??_R2CProHospitalDlg@@8
rdata$r	ENDS
;	COMDAT ??_R0?AVCProHospitalDlg@@@8
_DATA	SEGMENT
??_R0?AVCProHospitalDlg@@@8 DD FLAT:??_7type_info@@6B@	; CProHospitalDlg `RTTI Type Descriptor'
	DD	00H
	DB	'.?AVCProHospitalDlg@@', 00H
_DATA	ENDS
;	COMDAT ??_R4CProHospitalDlg@@6B@
rdata$r	SEGMENT
??_R4CProHospitalDlg@@6B@ DD 00H			; CProHospitalDlg::`RTTI Complete Object Locator'
	DD	00H
	DD	00H
	DD	FLAT:??_R0?AVCProHospitalDlg@@@8
	DD	FLAT:??_R3CProHospitalDlg@@8
rdata$r	ENDS
;	COMDAT ??_7CProHospitalDlg@@6B@
CONST	SEGMENT
??_7CProHospitalDlg@@6B@ DD FLAT:??_R4CProHospitalDlg@@6B@ ; CProHospitalDlg::`vftable'
	DD	FLAT:?GetRuntimeClass@CDialogEx@@UBEPAUCRuntimeClass@@XZ
	DD	FLAT:??_ECProHospitalDlg@@UAEPAXI@Z
	DD	FLAT:?Serialize@CObject@@UAEXAAVCArchive@@@Z
	DD	FLAT:?AssertValid@CDialog@@UBEXXZ
	DD	FLAT:?Dump@CDialog@@UBEXAAVCDumpContext@@@Z
	DD	FLAT:?OnCmdMsg@CDialog@@UAEHIHPAXPAUAFX_CMDHANDLERINFO@@@Z
	DD	FLAT:?OnFinalRelease@CWnd@@UAEXXZ
	DD	FLAT:?IsInvokeAllowed@CCmdTarget@@UAEHJ@Z
	DD	FLAT:?GetDispatchIID@CCmdTarget@@UAEHPAU_GUID@@@Z
	DD	FLAT:?GetTypeInfoCount@CCmdTarget@@UAEIXZ
	DD	FLAT:?GetTypeLibCache@CCmdTarget@@UAEPAVCTypeLibCache@@XZ
	DD	FLAT:?GetTypeLib@CCmdTarget@@UAEJKPAPAUITypeLib@@@Z
	DD	FLAT:?GetMessageMap@CProHospitalDlg@@MBEPBUAFX_MSGMAP@@XZ
	DD	FLAT:?GetCommandMap@CCmdTarget@@MBEPBUAFX_OLECMDMAP@@XZ
	DD	FLAT:?GetDispatchMap@CCmdTarget@@MBEPBUAFX_DISPMAP@@XZ
	DD	FLAT:?GetConnectionMap@CCmdTarget@@MBEPBUAFX_CONNECTIONMAP@@XZ
	DD	FLAT:?GetInterfaceMap@CWnd@@MBEPBUAFX_INTERFACEMAP@@XZ
	DD	FLAT:?GetEventSinkMap@CCmdTarget@@MBEPBUAFX_EVENTSINKMAP@@XZ
	DD	FLAT:?OnCreateAggregates@CCmdTarget@@UAEHXZ
	DD	FLAT:?GetInterfaceHook@CCmdTarget@@UAEPAUIUnknown@@PBX@Z
	DD	FLAT:?GetExtraConnectionPoints@CCmdTarget@@MAEHPAVCPtrArray@@@Z
	DD	FLAT:?GetConnectionHook@CCmdTarget@@MAEPAUIConnectionPoint@@ABU_GUID@@@Z
	DD	FLAT:?PreSubclassWindow@CWnd@@UAEXXZ
	DD	FLAT:?Create@CWnd@@UAEHPB_W0KABUtagRECT@@PAV1@IPAUCCreateContext@@@Z
	DD	FLAT:?CreateEx@CWnd@@UAEHKPB_W0KABUtagRECT@@PAV1@IPAX@Z
	DD	FLAT:?CreateEx@CWnd@@UAEHKPB_W0KHHHHPAUHWND__@@PAUHMENU__@@PAX@Z
	DD	FLAT:?DestroyWindow@CWnd@@UAEHXZ
	DD	FLAT:?PreCreateWindow@CWnd@@UAEHAAUtagCREATESTRUCTW@@@Z
	DD	FLAT:?CalcWindowRect@CWnd@@UAEXPAUtagRECT@@I@Z
	DD	FLAT:?GetMenu@CWnd@@UBEPAVCMenu@@XZ
	DD	FLAT:?SetMenu@CWnd@@UAEHPAVCMenu@@@Z
	DD	FLAT:?OnToolHitTest@CWnd@@UBEHVCPoint@@PAUtagTOOLINFOW@@@Z
	DD	FLAT:?GetScrollBarCtrl@CWnd@@UBEPAVCScrollBar@@H@Z
	DD	FLAT:?WinHelpW@CWnd@@UAEXKI@Z
	DD	FLAT:?HtmlHelpW@CWnd@@UAEXKI@Z
	DD	FLAT:?WinHelpInternal@CWnd@@UAEXKI@Z
	DD	FLAT:?ContinueModal@CWnd@@UAEHXZ
	DD	FLAT:?EndModalLoop@CWnd@@UAEXH@Z
	DD	FLAT:?OnDrawIconicThumbnailOrLivePreview@CWnd@@UAEXAAVCDC@@VCRect@@VCSize@@HAAH@Z
	DD	FLAT:?EnsureStdObj@CWnd@@UAEJXZ
	DD	FLAT:?get_accParent@CWnd@@UAEJPAPAUIDispatch@@@Z
	DD	FLAT:?get_accChildCount@CWnd@@UAEJPAJ@Z
	DD	FLAT:?get_accChild@CWnd@@UAEJUtagVARIANT@@PAPAUIDispatch@@@Z
	DD	FLAT:?get_accName@CWnd@@UAEJUtagVARIANT@@PAPA_W@Z
	DD	FLAT:?get_accValue@CWnd@@UAEJUtagVARIANT@@PAPA_W@Z
	DD	FLAT:?get_accDescription@CWnd@@UAEJUtagVARIANT@@PAPA_W@Z
	DD	FLAT:?get_accRole@CWnd@@UAEJUtagVARIANT@@PAU2@@Z
	DD	FLAT:?get_accState@CWnd@@UAEJUtagVARIANT@@PAU2@@Z
	DD	FLAT:?get_accHelp@CWnd@@UAEJUtagVARIANT@@PAPA_W@Z
	DD	FLAT:?get_accHelpTopic@CWnd@@UAEJPAPA_WUtagVARIANT@@PAJ@Z
	DD	FLAT:?get_accKeyboardShortcut@CWnd@@UAEJUtagVARIANT@@PAPA_W@Z
	DD	FLAT:?get_accFocus@CWnd@@UAEJPAUtagVARIANT@@@Z
	DD	FLAT:?get_accSelection@CWnd@@UAEJPAUtagVARIANT@@@Z
	DD	FLAT:?get_accDefaultAction@CWnd@@UAEJUtagVARIANT@@PAPA_W@Z
	DD	FLAT:?accSelect@CWnd@@UAEJJUtagVARIANT@@@Z
	DD	FLAT:?accLocation@CWnd@@UAEJPAJ000UtagVARIANT@@@Z
	DD	FLAT:?accNavigate@CWnd@@UAEJJUtagVARIANT@@PAU2@@Z
	DD	FLAT:?accHitTest@CWnd@@UAEJJJPAUtagVARIANT@@@Z
	DD	FLAT:?accDoDefaultAction@CWnd@@UAEJUtagVARIANT@@@Z
	DD	FLAT:?put_accName@CWnd@@UAEJUtagVARIANT@@PA_W@Z
	DD	FLAT:?put_accValue@CWnd@@UAEJUtagVARIANT@@PA_W@Z
	DD	FLAT:?SetProxy@CWnd@@UAEJPAUIAccessibleProxy@@@Z
	DD	FLAT:?CreateAccessibleProxy@CWnd@@UAEJIJPAJ@Z
	DD	FLAT:?OnCommand@CDialogEx@@MAEHIJ@Z
	DD	FLAT:?OnNotify@CWnd@@MAEHIJPAJ@Z
	DD	FLAT:?GetSuperWndProcAddr@CWnd@@MAEPAP6GJPAUHWND__@@IIJ@ZXZ
	DD	FLAT:?DoDataExchange@CProHospitalDlg@@MAEXPAVCDataExchange@@@Z
	DD	FLAT:?BeginModalState@CWnd@@UAEXXZ
	DD	FLAT:?EndModalState@CWnd@@UAEXXZ
	DD	FLAT:?PreTranslateMessage@CDialogEx@@UAEHPAUtagMSG@@@Z
	DD	FLAT:?OnAmbientProperty@CWnd@@UAEHPAVCOleControlSite@@JPAUtagVARIANT@@@Z
	DD	FLAT:?WindowProc@CWnd@@MAEJIIJ@Z
	DD	FLAT:?OnWndMsg@CWnd@@MAEHIIJPAJ@Z
	DD	FLAT:?DefWindowProcW@CWnd@@MAEJIIJ@Z
	DD	FLAT:?PostNcDestroy@CWnd@@MAEXXZ
	DD	FLAT:?OnChildNotify@CWnd@@MAEHIIJPAJ@Z
	DD	FLAT:?OnTouchInputs@CWnd@@MAEHIPAUtagTOUCHINPUT@@@Z
	DD	FLAT:?OnTouchInput@CWnd@@MAEHVCPoint@@HHPAUtagTOUCHINPUT@@@Z
	DD	FLAT:?GetGestureStatus@CWnd@@MAEKVCPoint@@@Z
	DD	FLAT:?OnGestureZoom@CWnd@@MAEHVCPoint@@J@Z
	DD	FLAT:?OnGesturePan@CWnd@@MAEHVCPoint@@0@Z
	DD	FLAT:?OnGestureRotate@CWnd@@MAEHVCPoint@@N@Z
	DD	FLAT:?OnGestureTwoFingerTap@CWnd@@MAEHVCPoint@@@Z
	DD	FLAT:?OnGesturePressAndTap@CWnd@@MAEHVCPoint@@J@Z
	DD	FLAT:?CheckAutoCenter@CDialog@@UAEHXZ
	DD	FLAT:?IsFrameWnd@CWnd@@UBEHXZ
	DD	FLAT:?CreateControlContainer@CWnd@@MAEHPAPAVCOleControlContainer@@@Z
	DD	FLAT:?CreateControlSite@CWnd@@MAEHPAVCOleControlContainer@@PAPAVCOleControlSite@@IABU_GUID@@@Z
	DD	FLAT:?SetOccDialogInfo@CDialog@@MAEHPAU_AFX_OCC_DIALOG_INFO@@@Z
	DD	FLAT:?GetOccDialogInfo@CDialog@@MAEPAU_AFX_OCC_DIALOG_INFO@@XZ
	DD	FLAT:?Create@CDialog@@UAEHIPAVCWnd@@@Z
	DD	FLAT:?Create@CDialog@@UAEHPB_WPAVCWnd@@@Z
	DD	FLAT:?CreateIndirect@CDialog@@UAEHPAXPAVCWnd@@@Z
	DD	FLAT:?CreateIndirect@CDialog@@UAEHPBUDLGTEMPLATE@@PAVCWnd@@PAX@Z
	DD	FLAT:?DoModal@CDialog@@UAEHXZ
	DD	FLAT:?OnInitDialog@CProHospitalDlg@@MAEHXZ
	DD	FLAT:?OnSetFont@CDialog@@UAEXPAVCFont@@@Z
	DD	FLAT:?OnOK@CDialog@@MAEXXZ
	DD	FLAT:?OnCancel@CDialog@@MAEXXZ
	DD	FLAT:?PreInitDialog@CDialog@@MAEXXZ
CONST	ENDS
;	COMDAT xdata$x
xdata$x	SEGMENT
__unwindtable$??0CProHospitalDlg@@QAE@PAVCWnd@@@Z DD 0ffffffffH
	DD	FLAT:__unwindfunclet$??0CProHospitalDlg@@QAE@PAVCWnd@@@Z$0
__ehfuncinfo$??0CProHospitalDlg@@QAE@PAVCWnd@@@Z DD 019930522H
	DD	01H
	DD	FLAT:__unwindtable$??0CProHospitalDlg@@QAE@PAVCWnd@@@Z
	DD	2 DUP(00H)
	DD	2 DUP(00H)
	DD	00H
	DD	01H
; Function compile flags: /Odtp /RTCsu /ZI
xdata$x	ENDS
;	COMDAT ??0CProHospitalDlg@@QAE@PAVCWnd@@@Z
_TEXT	SEGMENT
_this$ = -20						; size = 4
__$EHRec$ = -12						; size = 12
_pParent$ = 8						; size = 4
??0CProHospitalDlg@@QAE@PAVCWnd@@@Z PROC		; CProHospitalDlg::CProHospitalDlg, COMDAT
; _this$ = ecx
; Line 53
	push	ebp
	mov	ebp, esp
	push	-1
	push	__ehhandler$??0CProHospitalDlg@@QAE@PAVCWnd@@@Z
	mov	eax, DWORD PTR fs:0
	push	eax
	sub	esp, 204				; 000000ccH
	push	ebx
	push	esi
	push	edi
	push	ecx
	lea	edi, DWORD PTR [ebp-216]
	mov	ecx, 51					; 00000033H
	mov	eax, -858993460				; ccccccccH
	rep stosd
	pop	ecx
	mov	eax, DWORD PTR ___security_cookie
	xor	eax, ebp
	push	eax
	lea	eax, DWORD PTR __$EHRec$[ebp]
	mov	DWORD PTR fs:0, eax
	mov	DWORD PTR _this$[ebp], ecx
	mov	eax, DWORD PTR _pParent$[ebp]
	push	eax
	push	102					; 00000066H
	mov	ecx, DWORD PTR _this$[ebp]
	call	??0CDialogEx@@QAE@IPAVCWnd@@@Z		; CDialogEx::CDialogEx
	mov	DWORD PTR __$EHRec$[ebp+8], 0
	mov	eax, DWORD PTR _this$[ebp]
	mov	DWORD PTR [eax], OFFSET ??_7CProHospitalDlg@@6B@
; Line 54
	push	128					; 00000080H
	call	?AfxGetApp@@YGPAVCWinApp@@XZ		; AfxGetApp
	mov	ecx, eax
	call	?LoadIconW@CWinApp@@QBEPAUHICON__@@I@Z	; CWinApp::LoadIconW
	mov	ecx, DWORD PTR _this$[ebp]
	mov	DWORD PTR [ecx+184], eax
; Line 55
	mov	DWORD PTR __$EHRec$[ebp+8], -1
	mov	eax, DWORD PTR _this$[ebp]
	mov	ecx, DWORD PTR __$EHRec$[ebp]
	mov	DWORD PTR fs:0, ecx
	pop	ecx
	pop	edi
	pop	esi
	pop	ebx
	add	esp, 216				; 000000d8H
	cmp	ebp, esp
	call	__RTC_CheckEsp
	mov	esp, ebp
	pop	ebp
	ret	4
_TEXT	ENDS
;	COMDAT text$x
text$x	SEGMENT
__unwindfunclet$??0CProHospitalDlg@@QAE@PAVCWnd@@@Z$0:
	mov	ecx, DWORD PTR _this$[ebp]
	jmp	??1CDialogEx@@UAE@XZ
__ehhandler$??0CProHospitalDlg@@QAE@PAVCWnd@@@Z:
	mov	edx, DWORD PTR [esp+8]
	lea	eax, DWORD PTR [edx+12]
	mov	ecx, DWORD PTR [edx-220]
	xor	ecx, eax
	call	@__security_check_cookie@4
	mov	eax, OFFSET __ehfuncinfo$??0CProHospitalDlg@@QAE@PAVCWnd@@@Z
	jmp	___CxxFrameHandler3
text$x	ENDS
??0CProHospitalDlg@@QAE@PAVCWnd@@@Z ENDP		; CProHospitalDlg::CProHospitalDlg
PUBLIC	??1CProHospitalDlg@@UAE@XZ			; CProHospitalDlg::~CProHospitalDlg
; Function compile flags: /Odtp /RTCsu /ZI
;	COMDAT ??_GCProHospitalDlg@@UAEPAXI@Z
_TEXT	SEGMENT
_this$ = -8						; size = 4
___flags$ = 8						; size = 4
??_GCProHospitalDlg@@UAEPAXI@Z PROC			; CProHospitalDlg::`scalar deleting destructor', COMDAT
; _this$ = ecx
	push	ebp
	mov	ebp, esp
	sub	esp, 204				; 000000ccH
	push	ebx
	push	esi
	push	edi
	push	ecx
	lea	edi, DWORD PTR [ebp-204]
	mov	ecx, 51					; 00000033H
	mov	eax, -858993460				; ccccccccH
	rep stosd
	pop	ecx
	mov	DWORD PTR _this$[ebp], ecx
	mov	ecx, DWORD PTR _this$[ebp]
	call	??1CProHospitalDlg@@UAE@XZ
	mov	eax, DWORD PTR ___flags$[ebp]
	and	eax, 1
	je	SHORT $LN1@scalar@2
	mov	eax, DWORD PTR _this$[ebp]
	push	eax
	call	??3CObject@@SGXPAX@Z			; CObject::operator delete
$LN1@scalar@2:
	mov	eax, DWORD PTR _this$[ebp]
	pop	edi
	pop	esi
	pop	ebx
	add	esp, 204				; 000000ccH
	cmp	ebp, esp
	call	__RTC_CheckEsp
	mov	esp, ebp
	pop	ebp
	ret	4
??_GCProHospitalDlg@@UAEPAXI@Z ENDP			; CProHospitalDlg::`scalar deleting destructor'
; Function compile flags: /Odtp /RTCsu /ZI
_TEXT	ENDS
;	COMDAT ??1CProHospitalDlg@@UAE@XZ
_TEXT	SEGMENT
_this$ = -8						; size = 4
??1CProHospitalDlg@@UAE@XZ PROC				; CProHospitalDlg::~CProHospitalDlg, COMDAT
; _this$ = ecx
	push	ebp
	mov	ebp, esp
	sub	esp, 204				; 000000ccH
	push	ebx
	push	esi
	push	edi
	push	ecx
	lea	edi, DWORD PTR [ebp-204]
	mov	ecx, 51					; 00000033H
	mov	eax, -858993460				; ccccccccH
	rep stosd
	pop	ecx
	mov	DWORD PTR _this$[ebp], ecx
	mov	ecx, DWORD PTR _this$[ebp]
	call	??1CDialogEx@@UAE@XZ
	pop	edi
	pop	esi
	pop	ebx
	add	esp, 204				; 000000ccH
	cmp	ebp, esp
	call	__RTC_CheckEsp
	mov	esp, ebp
	pop	ebp
	ret	0
??1CProHospitalDlg@@UAE@XZ ENDP				; CProHospitalDlg::~CProHospitalDlg
; Function compile flags: /Odtp /RTCsu /ZI
_TEXT	ENDS
;	COMDAT ?DoDataExchange@CProHospitalDlg@@MAEXPAVCDataExchange@@@Z
_TEXT	SEGMENT
_this$ = -8						; size = 4
_pDX$ = 8						; size = 4
?DoDataExchange@CProHospitalDlg@@MAEXPAVCDataExchange@@@Z PROC ; CProHospitalDlg::DoDataExchange, COMDAT
; _this$ = ecx
; Line 58
	push	ebp
	mov	ebp, esp
	sub	esp, 204				; 000000ccH
	push	ebx
	push	esi
	push	edi
	push	ecx
	lea	edi, DWORD PTR [ebp-204]
	mov	ecx, 51					; 00000033H
	mov	eax, -858993460				; ccccccccH
	rep stosd
	pop	ecx
	mov	DWORD PTR _this$[ebp], ecx
; Line 59
	mov	eax, DWORD PTR _pDX$[ebp]
	push	eax
	mov	ecx, DWORD PTR _this$[ebp]
	call	?DoDataExchange@CWnd@@MAEXPAVCDataExchange@@@Z ; CWnd::DoDataExchange
; Line 60
	pop	edi
	pop	esi
	pop	ebx
	add	esp, 204				; 000000ccH
	cmp	ebp, esp
	call	__RTC_CheckEsp
	mov	esp, ebp
	pop	ebp
	ret	4
?DoDataExchange@CProHospitalDlg@@MAEXPAVCDataExchange@@@Z ENDP ; CProHospitalDlg::DoDataExchange
_TEXT	ENDS
PUBLIC	?GetThisMessageMap@CProHospitalDlg@@KGPBUAFX_MSGMAP@@XZ ; CProHospitalDlg::GetThisMessageMap
; Function compile flags: /Odtp /RTCsu /ZI
;	COMDAT ?GetMessageMap@CProHospitalDlg@@MBEPBUAFX_MSGMAP@@XZ
_TEXT	SEGMENT
_this$ = -8						; size = 4
?GetMessageMap@CProHospitalDlg@@MBEPBUAFX_MSGMAP@@XZ PROC ; CProHospitalDlg::GetMessageMap, COMDAT
; _this$ = ecx
; Line 62
	push	ebp
	mov	ebp, esp
	sub	esp, 204				; 000000ccH
	push	ebx
	push	esi
	push	edi
	push	ecx
	lea	edi, DWORD PTR [ebp-204]
	mov	ecx, 51					; 00000033H
	mov	eax, -858993460				; ccccccccH
	rep stosd
	pop	ecx
	mov	DWORD PTR _this$[ebp], ecx
	call	?GetThisMessageMap@CProHospitalDlg@@KGPBUAFX_MSGMAP@@XZ ; CProHospitalDlg::GetThisMessageMap
	pop	edi
	pop	esi
	pop	ebx
	add	esp, 204				; 000000ccH
	cmp	ebp, esp
	call	__RTC_CheckEsp
	mov	esp, ebp
	pop	ebp
	ret	0
?GetMessageMap@CProHospitalDlg@@MBEPBUAFX_MSGMAP@@XZ ENDP ; CProHospitalDlg::GetMessageMap
; Function compile flags: /Odtp /RTCsu /ZI
_TEXT	ENDS
;	COMDAT ?GetThisMessageMap@CProHospitalDlg@@KGPBUAFX_MSGMAP@@XZ
_TEXT	SEGMENT
?GetThisMessageMap@CProHospitalDlg@@KGPBUAFX_MSGMAP@@XZ PROC ; CProHospitalDlg::GetThisMessageMap, COMDAT
; Line 62
	push	ebp
	mov	ebp, esp
	sub	esp, 192				; 000000c0H
	push	ebx
	push	esi
	push	edi
	lea	edi, DWORD PTR [ebp-192]
	mov	ecx, 48					; 00000030H
	mov	eax, -858993460				; ccccccccH
	rep stosd
; Line 66
	mov	eax, OFFSET ?messageMap@?1??GetThisMessageMap@CProHospitalDlg@@KGPBUAFX_MSGMAP@@XZ@4U3@B
	pop	edi
	pop	esi
	pop	ebx
	mov	esp, ebp
	pop	ebp
	ret	0
?GetThisMessageMap@CProHospitalDlg@@KGPBUAFX_MSGMAP@@XZ ENDP ; CProHospitalDlg::GetThisMessageMap
_TEXT	ENDS
PUBLIC	??_C@_0FD@OBCBJBOD@d?3?2?N?R?$LF?D?N?D?$LF?$LF?2visual?5studio?52010?2p@ ; `string'
PUBLIC	?__LINE__Var@?1??OnInitDialog@CProHospitalDlg@@MAEHXZ@4JA ; `CProHospitalDlg::OnInitDialog'::`2'::__LINE__Var
EXTRN	?SetIcon@CWnd@@QAEPAUHICON__@@PAU2@H@Z:PROC	; CWnd::SetIcon
EXTRN	__imp_??1?$CStringT@_WV?$StrTraitMFC_DLL@_WV?$ChTraitsCRT@_W@ATL@@@@@ATL@@QAE@XZ:PROC
EXTRN	__imp_??B?$CSimpleStringT@_W$00@ATL@@QBEPB_WXZ:PROC
EXTRN	?AppendMenuW@CMenu@@QAEHIIPB_W@Z:PROC		; CMenu::AppendMenuW
EXTRN	__imp_?IsEmpty@?$CSimpleStringT@_W$00@ATL@@QBE_NXZ:PROC
EXTRN	?AfxAssertFailedLine@@YGHPBDH@Z:PROC		; AfxAssertFailedLine
EXTRN	__imp_?LoadStringW@?$CStringT@_WV?$StrTraitMFC_DLL@_WV?$ChTraitsCRT@_W@ATL@@@@@ATL@@QAEHI@Z:PROC
EXTRN	__imp_??0?$CStringT@_WV?$StrTraitMFC_DLL@_WV?$ChTraitsCRT@_W@ATL@@@@@ATL@@QAE@XZ:PROC
EXTRN	?GetSystemMenu@CWnd@@QBEPAVCMenu@@H@Z:PROC	; CWnd::GetSystemMenu
EXTRN	@_RTC_CheckStackVars@8:PROC
;	COMDAT ??_C@_0FD@OBCBJBOD@d?3?2?N?R?$LF?D?N?D?$LF?$LF?2visual?5studio?52010?2p@
CONST	SEGMENT
??_C@_0FD@OBCBJBOD@d?3?2?N?R?$LF?D?N?D?$LF?$LF?2visual?5studio?52010?2p@ DB 'd'
	DB	':\', 0ceH, 0d2H, 0b5H, 0c4H, 0ceH, 0c4H, 0b5H, 0b5H, '\visual'
	DB	' studio 2010\projects\prohospital\prohospital\prohospitaldlg.'
	DB	'cpp', 00H					; `string'
CONST	ENDS
;	COMDAT ?__LINE__Var@?1??OnInitDialog@CProHospitalDlg@@MAEHXZ@4JA
_DATA	SEGMENT
?__LINE__Var@?1??OnInitDialog@CProHospitalDlg@@MAEHXZ@4JA DD 048H ; `CProHospitalDlg::OnInitDialog'::`2'::__LINE__Var
_DATA	ENDS
;	COMDAT xdata$x
xdata$x	SEGMENT
__unwindtable$?OnInitDialog@CProHospitalDlg@@MAEHXZ DD 0ffffffffH
	DD	FLAT:__unwindfunclet$?OnInitDialog@CProHospitalDlg@@MAEHXZ$0
__ehfuncinfo$?OnInitDialog@CProHospitalDlg@@MAEHXZ DD 019930522H
	DD	01H
	DD	FLAT:__unwindtable$?OnInitDialog@CProHospitalDlg@@MAEHXZ
	DD	2 DUP(00H)
	DD	2 DUP(00H)
	DD	00H
	DD	01H
; Function compile flags: /Odtp /RTCsu /ZI
xdata$x	ENDS
;	COMDAT ?OnInitDialog@CProHospitalDlg@@MAEHXZ
_TEXT	SEGMENT
_strAboutMenu$215676 = -56				; size = 4
_bNameValid$215675 = -44				; size = 4
_pSysMenu$ = -32					; size = 4
_this$ = -20						; size = 4
__$EHRec$ = -12						; size = 12
?OnInitDialog@CProHospitalDlg@@MAEHXZ PROC		; CProHospitalDlg::OnInitDialog, COMDAT
; _this$ = ecx
; Line 72
	push	ebp
	mov	ebp, esp
	push	-1
	push	__ehhandler$?OnInitDialog@CProHospitalDlg@@MAEHXZ
	mov	eax, DWORD PTR fs:0
	push	eax
	sub	esp, 240				; 000000f0H
	push	ebx
	push	esi
	push	edi
	push	ecx
	lea	edi, DWORD PTR [ebp-252]
	mov	ecx, 60					; 0000003cH
	mov	eax, -858993460				; ccccccccH
	rep stosd
	pop	ecx
	mov	eax, DWORD PTR ___security_cookie
	xor	eax, ebp
	push	eax
	lea	eax, DWORD PTR __$EHRec$[ebp]
	mov	DWORD PTR fs:0, eax
	mov	DWORD PTR _this$[ebp], ecx
; Line 73
	mov	ecx, DWORD PTR _this$[ebp]
	call	?OnInitDialog@CDialog@@UAEHXZ		; CDialog::OnInitDialog
; Line 81
	push	0
	mov	ecx, DWORD PTR _this$[ebp]
	call	?GetSystemMenu@CWnd@@QBEPAVCMenu@@H@Z	; CWnd::GetSystemMenu
	mov	DWORD PTR _pSysMenu$[ebp], eax
; Line 82
	cmp	DWORD PTR _pSysMenu$[ebp], 0
	je	$LN2@OnInitDial
; Line 85
	mov	esi, esp
	lea	ecx, DWORD PTR _strAboutMenu$215676[ebp]
	call	DWORD PTR __imp_??0?$CStringT@_WV?$StrTraitMFC_DLL@_WV?$ChTraitsCRT@_W@ATL@@@@@ATL@@QAE@XZ
	cmp	esi, esp
	call	__RTC_CheckEsp
	mov	DWORD PTR __$EHRec$[ebp+8], 0
; Line 86
	mov	esi, esp
	push	101					; 00000065H
	lea	ecx, DWORD PTR _strAboutMenu$215676[ebp]
	call	DWORD PTR __imp_?LoadStringW@?$CStringT@_WV?$StrTraitMFC_DLL@_WV?$ChTraitsCRT@_W@ATL@@@@@ATL@@QAEHI@Z
	cmp	esi, esp
	call	__RTC_CheckEsp
	mov	DWORD PTR _bNameValid$215675[ebp], eax
; Line 87
	cmp	DWORD PTR _bNameValid$215675[ebp], 0
	jne	SHORT $LN5@OnInitDial
	mov	eax, DWORD PTR ?__LINE__Var@?1??OnInitDialog@CProHospitalDlg@@MAEHXZ@4JA
	add	eax, 15					; 0000000fH
	push	eax
	push	OFFSET ??_C@_0FD@OBCBJBOD@d?3?2?N?R?$LF?D?N?D?$LF?$LF?2visual?5studio?52010?2p@
	call	?AfxAssertFailedLine@@YGHPBDH@Z		; AfxAssertFailedLine
	test	eax, eax
	je	SHORT $LN5@OnInitDial
	int	3
$LN5@OnInitDial:
; Line 88
	mov	esi, esp
	lea	ecx, DWORD PTR _strAboutMenu$215676[ebp]
	call	DWORD PTR __imp_?IsEmpty@?$CSimpleStringT@_W$00@ATL@@QBE_NXZ
	cmp	esi, esp
	call	__RTC_CheckEsp
	movzx	eax, al
	test	eax, eax
	jne	SHORT $LN1@OnInitDial
; Line 90
	push	0
	push	0
	push	2048					; 00000800H
	mov	ecx, DWORD PTR _pSysMenu$[ebp]
	call	?AppendMenuW@CMenu@@QAEHIIPB_W@Z	; CMenu::AppendMenuW
; Line 91
	mov	esi, esp
	lea	ecx, DWORD PTR _strAboutMenu$215676[ebp]
	call	DWORD PTR __imp_??B?$CSimpleStringT@_W$00@ATL@@QBEPB_WXZ
	cmp	esi, esp
	call	__RTC_CheckEsp
	push	eax
	push	16					; 00000010H
	push	0
	mov	ecx, DWORD PTR _pSysMenu$[ebp]
	call	?AppendMenuW@CMenu@@QAEHIIPB_W@Z	; CMenu::AppendMenuW
$LN1@OnInitDial:
; Line 93
	mov	DWORD PTR __$EHRec$[ebp+8], -1
	mov	esi, esp
	lea	ecx, DWORD PTR _strAboutMenu$215676[ebp]
	call	DWORD PTR __imp_??1?$CStringT@_WV?$StrTraitMFC_DLL@_WV?$ChTraitsCRT@_W@ATL@@@@@ATL@@QAE@XZ
	cmp	esi, esp
	call	__RTC_CheckEsp
$LN2@OnInitDial:
; Line 97
	push	1
	mov	eax, DWORD PTR _this$[ebp]
	mov	ecx, DWORD PTR [eax+184]
	push	ecx
	mov	ecx, DWORD PTR _this$[ebp]
	call	?SetIcon@CWnd@@QAEPAUHICON__@@PAU2@H@Z	; CWnd::SetIcon
; Line 98
	push	0
	mov	eax, DWORD PTR _this$[ebp]
	mov	ecx, DWORD PTR [eax+184]
	push	ecx
	mov	ecx, DWORD PTR _this$[ebp]
	call	?SetIcon@CWnd@@QAEPAUHICON__@@PAU2@H@Z	; CWnd::SetIcon
; Line 102
	mov	eax, 1
; Line 103
	push	edx
	mov	ecx, ebp
	push	eax
	lea	edx, DWORD PTR $LN10@OnInitDial
	call	@_RTC_CheckStackVars@8
	pop	eax
	pop	edx
	mov	ecx, DWORD PTR __$EHRec$[ebp]
	mov	DWORD PTR fs:0, ecx
	pop	ecx
	pop	edi
	pop	esi
	pop	ebx
	add	esp, 252				; 000000fcH
	cmp	ebp, esp
	call	__RTC_CheckEsp
	mov	esp, ebp
	pop	ebp
	ret	0
	npad	2
$LN10@OnInitDial:
	DD	1
	DD	$LN9@OnInitDial
$LN9@OnInitDial:
	DD	-56					; ffffffc8H
	DD	4
	DD	$LN7@OnInitDial
$LN7@OnInitDial:
	DB	115					; 00000073H
	DB	116					; 00000074H
	DB	114					; 00000072H
	DB	65					; 00000041H
	DB	98					; 00000062H
	DB	111					; 0000006fH
	DB	117					; 00000075H
	DB	116					; 00000074H
	DB	77					; 0000004dH
	DB	101					; 00000065H
	DB	110					; 0000006eH
	DB	117					; 00000075H
	DB	0
_TEXT	ENDS
;	COMDAT text$x
text$x	SEGMENT
__unwindfunclet$?OnInitDialog@CProHospitalDlg@@MAEHXZ$0:
	mov	esi, esp
	lea	ecx, DWORD PTR _strAboutMenu$215676[ebp]
	call	DWORD PTR __imp_??1?$CStringT@_WV?$StrTraitMFC_DLL@_WV?$ChTraitsCRT@_W@ATL@@@@@ATL@@QAE@XZ
	cmp	esi, esp
	jmp	__RTC_CheckEsp
__ehhandler$?OnInitDialog@CProHospitalDlg@@MAEHXZ:
	mov	edx, DWORD PTR [esp+8]
	lea	eax, DWORD PTR [edx+12]
	mov	ecx, DWORD PTR [edx-256]
	xor	ecx, eax
	call	@__security_check_cookie@4
	mov	eax, OFFSET __ehfuncinfo$?OnInitDialog@CProHospitalDlg@@MAEHXZ
	jmp	___CxxFrameHandler3
text$x	ENDS
?OnInitDialog@CProHospitalDlg@@MAEHXZ ENDP		; CProHospitalDlg::OnInitDialog
EXTRN	?OnSysCommand@CWnd@@IAEXIJ@Z:PROC		; CWnd::OnSysCommand
;	COMDAT xdata$x
xdata$x	SEGMENT
__unwindtable$?OnSysCommand@CProHospitalDlg@@IAEXIJ@Z DD 0ffffffffH
	DD	FLAT:__unwindfunclet$?OnSysCommand@CProHospitalDlg@@IAEXIJ@Z$0
__ehfuncinfo$?OnSysCommand@CProHospitalDlg@@IAEXIJ@Z DD 019930522H
	DD	01H
	DD	FLAT:__unwindtable$?OnSysCommand@CProHospitalDlg@@IAEXIJ@Z
	DD	2 DUP(00H)
	DD	2 DUP(00H)
	DD	00H
	DD	01H
; Function compile flags: /Odtp /RTCsu /ZI
xdata$x	ENDS
;	COMDAT ?OnSysCommand@CProHospitalDlg@@IAEXIJ@Z
_TEXT	SEGMENT
_dlgAbout$215686 = -212					; size = 184
_this$ = -20						; size = 4
__$EHRec$ = -12						; size = 12
_nID$ = 8						; size = 4
_lParam$ = 12						; size = 4
?OnSysCommand@CProHospitalDlg@@IAEXIJ@Z PROC		; CProHospitalDlg::OnSysCommand, COMDAT
; _this$ = ecx
; Line 106
	push	ebp
	mov	ebp, esp
	push	-1
	push	__ehhandler$?OnSysCommand@CProHospitalDlg@@IAEXIJ@Z
	mov	eax, DWORD PTR fs:0
	push	eax
	sub	esp, 396				; 0000018cH
	push	ebx
	push	esi
	push	edi
	push	ecx
	lea	edi, DWORD PTR [ebp-408]
	mov	ecx, 99					; 00000063H
	mov	eax, -858993460				; ccccccccH
	rep stosd
	pop	ecx
	mov	eax, DWORD PTR ___security_cookie
	xor	eax, ebp
	push	eax
	lea	eax, DWORD PTR __$EHRec$[ebp]
	mov	DWORD PTR fs:0, eax
	mov	DWORD PTR _this$[ebp], ecx
; Line 107
	mov	eax, DWORD PTR _nID$[ebp]
	and	eax, 65520				; 0000fff0H
	cmp	eax, 16					; 00000010H
	jne	SHORT $LN2@OnSysComma
; Line 109
	lea	ecx, DWORD PTR _dlgAbout$215686[ebp]
	call	??0CAboutDlg@@QAE@XZ			; CAboutDlg::CAboutDlg
	mov	DWORD PTR __$EHRec$[ebp+8], 0
; Line 110
	lea	ecx, DWORD PTR _dlgAbout$215686[ebp]
	call	?DoModal@CDialog@@UAEHXZ		; CDialog::DoModal
; Line 111
	mov	DWORD PTR __$EHRec$[ebp+8], -1
	lea	ecx, DWORD PTR _dlgAbout$215686[ebp]
	call	??1CAboutDlg@@UAE@XZ
; Line 112
	jmp	SHORT $LN3@OnSysComma
$LN2@OnSysComma:
; Line 114
	mov	eax, DWORD PTR _lParam$[ebp]
	push	eax
	mov	ecx, DWORD PTR _nID$[ebp]
	push	ecx
	mov	ecx, DWORD PTR _this$[ebp]
	call	?OnSysCommand@CWnd@@IAEXIJ@Z		; CWnd::OnSysCommand
$LN3@OnSysComma:
; Line 116
	push	edx
	mov	ecx, ebp
	push	eax
	lea	edx, DWORD PTR $LN9@OnSysComma
	call	@_RTC_CheckStackVars@8
	pop	eax
	pop	edx
	mov	ecx, DWORD PTR __$EHRec$[ebp]
	mov	DWORD PTR fs:0, ecx
	pop	ecx
	pop	edi
	pop	esi
	pop	ebx
	add	esp, 408				; 00000198H
	cmp	ebp, esp
	call	__RTC_CheckEsp
	mov	esp, ebp
	pop	ebp
	ret	8
	npad	2
$LN9@OnSysComma:
	DD	1
	DD	$LN8@OnSysComma
$LN8@OnSysComma:
	DD	-212					; ffffff2cH
	DD	184					; 000000b8H
	DD	$LN6@OnSysComma
$LN6@OnSysComma:
	DB	100					; 00000064H
	DB	108					; 0000006cH
	DB	103					; 00000067H
	DB	65					; 00000041H
	DB	98					; 00000062H
	DB	111					; 0000006fH
	DB	117					; 00000075H
	DB	116					; 00000074H
	DB	0
_TEXT	ENDS
;	COMDAT text$x
text$x	SEGMENT
__unwindfunclet$?OnSysCommand@CProHospitalDlg@@IAEXIJ@Z$0:
	lea	ecx, DWORD PTR _dlgAbout$215686[ebp]
	jmp	??1CAboutDlg@@UAE@XZ
__ehhandler$?OnSysCommand@CProHospitalDlg@@IAEXIJ@Z:
	mov	edx, DWORD PTR [esp+8]
	lea	eax, DWORD PTR [edx+12]
	mov	ecx, DWORD PTR [edx-412]
	xor	ecx, eax
	call	@__security_check_cookie@4
	mov	eax, OFFSET __ehfuncinfo$?OnSysCommand@CProHospitalDlg@@IAEXIJ@Z
	jmp	___CxxFrameHandler3
text$x	ENDS
?OnSysCommand@CProHospitalDlg@@IAEXIJ@Z ENDP		; CProHospitalDlg::OnSysCommand
PUBLIC	__$ArrayPad$
EXTRN	?OnPaint@CDialog@@IAEXXZ:PROC			; CDialog::OnPaint
EXTRN	??1CPaintDC@@UAE@XZ:PROC			; CPaintDC::~CPaintDC
EXTRN	?DrawIcon@CDC@@QAEHHHPAUHICON__@@@Z:PROC	; CDC::DrawIcon
EXTRN	?Height@CRect@@QBEHXZ:PROC			; CRect::Height
EXTRN	?Width@CRect@@QBEHXZ:PROC			; CRect::Width
EXTRN	?GetClientRect@CWnd@@QBEXPAUtagRECT@@@Z:PROC	; CWnd::GetClientRect
EXTRN	??0CRect@@QAE@XZ:PROC				; CRect::CRect
EXTRN	__imp__GetSystemMetrics@4:PROC
EXTRN	?SendMessageW@CWnd@@QBEJIIJ@Z:PROC		; CWnd::SendMessageW
EXTRN	?GetSafeHdc@CDC@@QBEPAUHDC__@@XZ:PROC		; CDC::GetSafeHdc
EXTRN	??0CPaintDC@@QAE@PAVCWnd@@@Z:PROC		; CPaintDC::CPaintDC
EXTRN	?IsIconic@CWnd@@QBEHXZ:PROC			; CWnd::IsIconic
;	COMDAT xdata$x
xdata$x	SEGMENT
__unwindtable$?OnPaint@CProHospitalDlg@@IAEXXZ DD 0ffffffffH
	DD	FLAT:__unwindfunclet$?OnPaint@CProHospitalDlg@@IAEXXZ$0
__ehfuncinfo$?OnPaint@CProHospitalDlg@@IAEXXZ DD 019930522H
	DD	01H
	DD	FLAT:__unwindtable$?OnPaint@CProHospitalDlg@@IAEXXZ
	DD	2 DUP(00H)
	DD	2 DUP(00H)
	DD	00H
	DD	01H
; Function compile flags: /Odtp /RTCsu /ZI
xdata$x	ENDS
;	COMDAT ?OnPaint@CProHospitalDlg@@IAEXXZ
_TEXT	SEGMENT
_y$215698 = -188					; size = 4
_x$215697 = -176					; size = 4
_rect$215696 = -164					; size = 16
_cyIcon$215695 = -140					; size = 4
_cxIcon$215694 = -128					; size = 4
_dc$215692 = -116					; size = 84
_this$ = -24						; size = 4
__$ArrayPad$ = -16					; size = 4
__$EHRec$ = -12						; size = 12
?OnPaint@CProHospitalDlg@@IAEXXZ PROC			; CProHospitalDlg::OnPaint, COMDAT
; _this$ = ecx
; Line 123
	push	ebp
	mov	ebp, esp
	push	-1
	push	__ehhandler$?OnPaint@CProHospitalDlg@@IAEXXZ
	mov	eax, DWORD PTR fs:0
	push	eax
	sub	esp, 372				; 00000174H
	push	ebx
	push	esi
	push	edi
	push	ecx
	lea	edi, DWORD PTR [ebp-384]
	mov	ecx, 93					; 0000005dH
	mov	eax, -858993460				; ccccccccH
	rep stosd
	pop	ecx
	mov	eax, DWORD PTR ___security_cookie
	xor	eax, ebp
	mov	DWORD PTR __$ArrayPad$[ebp], eax
	push	eax
	lea	eax, DWORD PTR __$EHRec$[ebp]
	mov	DWORD PTR fs:0, eax
	mov	DWORD PTR _this$[ebp], ecx
; Line 124
	mov	ecx, DWORD PTR _this$[ebp]
	call	?IsIconic@CWnd@@QBEHXZ			; CWnd::IsIconic
	test	eax, eax
	je	$LN2@OnPaint
; Line 126
	mov	eax, DWORD PTR _this$[ebp]
	push	eax
	lea	ecx, DWORD PTR _dc$215692[ebp]
	call	??0CPaintDC@@QAE@PAVCWnd@@@Z		; CPaintDC::CPaintDC
	mov	DWORD PTR __$EHRec$[ebp+8], 0
; Line 128
	push	0
	lea	ecx, DWORD PTR _dc$215692[ebp]
	call	?GetSafeHdc@CDC@@QBEPAUHDC__@@XZ	; CDC::GetSafeHdc
	push	eax
	push	39					; 00000027H
	mov	ecx, DWORD PTR _this$[ebp]
	call	?SendMessageW@CWnd@@QBEJIIJ@Z		; CWnd::SendMessageW
; Line 131
	mov	esi, esp
	push	11					; 0000000bH
	call	DWORD PTR __imp__GetSystemMetrics@4
	cmp	esi, esp
	call	__RTC_CheckEsp
	mov	DWORD PTR _cxIcon$215694[ebp], eax
; Line 132
	mov	esi, esp
	push	12					; 0000000cH
	call	DWORD PTR __imp__GetSystemMetrics@4
	cmp	esi, esp
	call	__RTC_CheckEsp
	mov	DWORD PTR _cyIcon$215695[ebp], eax
; Line 133
	lea	ecx, DWORD PTR _rect$215696[ebp]
	call	??0CRect@@QAE@XZ			; CRect::CRect
; Line 134
	lea	eax, DWORD PTR _rect$215696[ebp]
	push	eax
	mov	ecx, DWORD PTR _this$[ebp]
	call	?GetClientRect@CWnd@@QBEXPAUtagRECT@@@Z	; CWnd::GetClientRect
; Line 135
	lea	ecx, DWORD PTR _rect$215696[ebp]
	call	?Width@CRect@@QBEHXZ			; CRect::Width
	sub	eax, DWORD PTR _cxIcon$215694[ebp]
	add	eax, 1
	cdq
	sub	eax, edx
	sar	eax, 1
	mov	DWORD PTR _x$215697[ebp], eax
; Line 136
	lea	ecx, DWORD PTR _rect$215696[ebp]
	call	?Height@CRect@@QBEHXZ			; CRect::Height
	sub	eax, DWORD PTR _cyIcon$215695[ebp]
	add	eax, 1
	cdq
	sub	eax, edx
	sar	eax, 1
	mov	DWORD PTR _y$215698[ebp], eax
; Line 139
	mov	eax, DWORD PTR _this$[ebp]
	mov	ecx, DWORD PTR [eax+184]
	push	ecx
	mov	edx, DWORD PTR _y$215698[ebp]
	push	edx
	mov	eax, DWORD PTR _x$215697[ebp]
	push	eax
	lea	ecx, DWORD PTR _dc$215692[ebp]
	call	?DrawIcon@CDC@@QAEHHHPAUHICON__@@@Z	; CDC::DrawIcon
; Line 140
	mov	DWORD PTR __$EHRec$[ebp+8], -1
	lea	ecx, DWORD PTR _dc$215692[ebp]
	call	??1CPaintDC@@UAE@XZ			; CPaintDC::~CPaintDC
; Line 141
	jmp	SHORT $LN3@OnPaint
$LN2@OnPaint:
; Line 143
	mov	ecx, DWORD PTR _this$[ebp]
	call	?OnPaint@CDialog@@IAEXXZ		; CDialog::OnPaint
$LN3@OnPaint:
; Line 145
	push	edx
	mov	ecx, ebp
	push	eax
	lea	edx, DWORD PTR $LN10@OnPaint
	call	@_RTC_CheckStackVars@8
	pop	eax
	pop	edx
	mov	ecx, DWORD PTR __$EHRec$[ebp]
	mov	DWORD PTR fs:0, ecx
	pop	ecx
	pop	edi
	pop	esi
	pop	ebx
	mov	ecx, DWORD PTR __$ArrayPad$[ebp]
	xor	ecx, ebp
	call	@__security_check_cookie@4
	add	esp, 384				; 00000180H
	cmp	ebp, esp
	call	__RTC_CheckEsp
	mov	esp, ebp
	pop	ebp
	ret	0
$LN10@OnPaint:
	DD	2
	DD	$LN9@OnPaint
$LN9@OnPaint:
	DD	-116					; ffffff8cH
	DD	84					; 00000054H
	DD	$LN6@OnPaint
	DD	-164					; ffffff5cH
	DD	16					; 00000010H
	DD	$LN7@OnPaint
$LN7@OnPaint:
	DB	114					; 00000072H
	DB	101					; 00000065H
	DB	99					; 00000063H
	DB	116					; 00000074H
	DB	0
$LN6@OnPaint:
	DB	100					; 00000064H
	DB	99					; 00000063H
	DB	0
_TEXT	ENDS
;	COMDAT text$x
text$x	SEGMENT
__unwindfunclet$?OnPaint@CProHospitalDlg@@IAEXXZ$0:
	lea	ecx, DWORD PTR _dc$215692[ebp]
	jmp	??1CPaintDC@@UAE@XZ			; CPaintDC::~CPaintDC
__ehhandler$?OnPaint@CProHospitalDlg@@IAEXXZ:
	mov	edx, DWORD PTR [esp+8]
	lea	eax, DWORD PTR [edx+12]
	mov	ecx, DWORD PTR [edx-388]
	xor	ecx, eax
	call	@__security_check_cookie@4
	mov	ecx, DWORD PTR [edx-4]
	xor	ecx, eax
	call	@__security_check_cookie@4
	mov	eax, OFFSET __ehfuncinfo$?OnPaint@CProHospitalDlg@@IAEXXZ
	jmp	___CxxFrameHandler3
text$x	ENDS
?OnPaint@CProHospitalDlg@@IAEXXZ ENDP			; CProHospitalDlg::OnPaint
; Function compile flags: /Odtp /RTCsu /ZI
;	COMDAT ?OnQueryDragIcon@CProHospitalDlg@@IAEPAUHICON__@@XZ
_TEXT	SEGMENT
_this$ = -8						; size = 4
?OnQueryDragIcon@CProHospitalDlg@@IAEPAUHICON__@@XZ PROC ; CProHospitalDlg::OnQueryDragIcon, COMDAT
; _this$ = ecx
; Line 150
	push	ebp
	mov	ebp, esp
	sub	esp, 204				; 000000ccH
	push	ebx
	push	esi
	push	edi
	push	ecx
	lea	edi, DWORD PTR [ebp-204]
	mov	ecx, 51					; 00000033H
	mov	eax, -858993460				; ccccccccH
	rep stosd
	pop	ecx
	mov	DWORD PTR _this$[ebp], ecx
; Line 151
	mov	eax, DWORD PTR _this$[ebp]
	mov	eax, DWORD PTR [eax+184]
; Line 152
	pop	edi
	pop	esi
	pop	ebx
	mov	esp, ebp
	pop	ebp
	ret	0
?OnQueryDragIcon@CProHospitalDlg@@IAEPAUHICON__@@XZ ENDP ; CProHospitalDlg::OnQueryDragIcon
_TEXT	ENDS
END
