; Listing generated by Microsoft (R) Optimizing Compiler Version 16.00.30319.01 

	TITLE	d:\我的文档\visual studio 2010\Projects\ProHospital\ProHospital\ProHospital.cpp
	.686P
	.XMM
	include listing.inc
	.model	flat

INCLUDELIB MSVCRTD
INCLUDELIB OLDNAMES

EXTRN	?GetThisMessageMap@CWinApp@@KGPBUAFX_MSGMAP@@XZ:PROC ; CWinApp::GetThisMessageMap
EXTRN	?OnHelp@CWinApp@@IAEXXZ:PROC			; CWinApp::OnHelp
CONST	SEGMENT
?_messageEntries@?1??GetThisMessageMap@CProHospitalApp@@KGPBUAFX_MSGMAP@@XZ@4QBUAFX_MSGMAP_ENTRY@@B DD 0111H ; `CProHospitalApp::GetThisMessageMap'::`2'::_messageEntries
	DD	00H
	DD	0e146H
	DD	0e146H
	DD	039H
	DD	FLAT:?OnHelp@CWinApp@@IAEXXZ
	DD	00H
	DD	00H
	DD	00H
	DD	00H
	DD	00H
	DD	00H
?messageMap@?1??GetThisMessageMap@CProHospitalApp@@KGPBUAFX_MSGMAP@@XZ@4U3@B DD FLAT:?GetThisMessageMap@CWinApp@@KGPBUAFX_MSGMAP@@XZ ; `CProHospitalApp::GetThisMessageMap'::`2'::messageMap
	DD	FLAT:?_messageEntries@?1??GetThisMessageMap@CProHospitalApp@@KGPBUAFX_MSGMAP@@XZ@4QBUAFX_MSGMAP_ENTRY@@B
CONST	ENDS
PUBLIC	?GetThisMessageMap@CProHospitalApp@@KGPBUAFX_MSGMAP@@XZ ; CProHospitalApp::GetThisMessageMap
PUBLIC	?GetMessageMap@CProHospitalApp@@MBEPBUAFX_MSGMAP@@XZ ; CProHospitalApp::GetMessageMap
EXTRN	__RTC_CheckEsp:PROC
EXTRN	__RTC_Shutdown:PROC
EXTRN	__RTC_InitBase:PROC
;	COMDAT rtc$TMZ
; File d:\我的文档\visual studio 2010\projects\prohospital\prohospital\prohospital.cpp
rtc$TMZ	SEGMENT
__RTC_Shutdown.rtc$TMZ DD FLAT:__RTC_Shutdown
rtc$TMZ	ENDS
;	COMDAT rtc$IMZ
rtc$IMZ	SEGMENT
__RTC_InitBase.rtc$IMZ DD FLAT:__RTC_InitBase
; Function compile flags: /Odtp /RTCsu /ZI
rtc$IMZ	ENDS
;	COMDAT ?GetMessageMap@CProHospitalApp@@MBEPBUAFX_MSGMAP@@XZ
_TEXT	SEGMENT
_this$ = -8						; size = 4
?GetMessageMap@CProHospitalApp@@MBEPBUAFX_MSGMAP@@XZ PROC ; CProHospitalApp::GetMessageMap, COMDAT
; _this$ = ecx
; Line 16
	push	ebp
	mov	ebp, esp
	sub	esp, 204				; 000000ccH
	push	ebx
	push	esi
	push	edi
	push	ecx
	lea	edi, DWORD PTR [ebp-204]
	mov	ecx, 51					; 00000033H
	mov	eax, -858993460				; ccccccccH
	rep stosd
	pop	ecx
	mov	DWORD PTR _this$[ebp], ecx
	call	?GetThisMessageMap@CProHospitalApp@@KGPBUAFX_MSGMAP@@XZ ; CProHospitalApp::GetThisMessageMap
	pop	edi
	pop	esi
	pop	ebx
	add	esp, 204				; 000000ccH
	cmp	ebp, esp
	call	__RTC_CheckEsp
	mov	esp, ebp
	pop	ebp
	ret	0
?GetMessageMap@CProHospitalApp@@MBEPBUAFX_MSGMAP@@XZ ENDP ; CProHospitalApp::GetMessageMap
; Function compile flags: /Odtp /RTCsu /ZI
_TEXT	ENDS
;	COMDAT ?GetThisMessageMap@CProHospitalApp@@KGPBUAFX_MSGMAP@@XZ
_TEXT	SEGMENT
?GetThisMessageMap@CProHospitalApp@@KGPBUAFX_MSGMAP@@XZ PROC ; CProHospitalApp::GetThisMessageMap, COMDAT
; Line 16
	push	ebp
	mov	ebp, esp
	sub	esp, 192				; 000000c0H
	push	ebx
	push	esi
	push	edi
	lea	edi, DWORD PTR [ebp-192]
	mov	ecx, 48					; 00000030H
	mov	eax, -858993460				; ccccccccH
	rep stosd
; Line 18
	mov	eax, OFFSET ?messageMap@?1??GetThisMessageMap@CProHospitalApp@@KGPBUAFX_MSGMAP@@XZ@4U3@B
	pop	edi
	pop	esi
	pop	ebx
	mov	esp, ebp
	pop	ebp
	ret	0
?GetThisMessageMap@CProHospitalApp@@KGPBUAFX_MSGMAP@@XZ ENDP ; CProHospitalApp::GetThisMessageMap
_TEXT	ENDS
PUBLIC	??_7CProHospitalApp@@6B@			; CProHospitalApp::`vftable'
PUBLIC	??0CProHospitalApp@@QAE@XZ			; CProHospitalApp::CProHospitalApp
PUBLIC	??_R4CProHospitalApp@@6B@			; CProHospitalApp::`RTTI Complete Object Locator'
PUBLIC	??_R0?AVCProHospitalApp@@@8			; CProHospitalApp `RTTI Type Descriptor'
PUBLIC	??_R3CProHospitalApp@@8				; CProHospitalApp::`RTTI Class Hierarchy Descriptor'
PUBLIC	??_R2CProHospitalApp@@8				; CProHospitalApp::`RTTI Base Class Array'
PUBLIC	??_R1A@?0A@EA@CProHospitalApp@@8		; CProHospitalApp::`RTTI Base Class Descriptor at (0,-1,0,64)'
PUBLIC	??_R1A@?0A@EA@CWinApp@@8			; CWinApp::`RTTI Base Class Descriptor at (0,-1,0,64)'
PUBLIC	??_R0?AVCWinApp@@@8				; CWinApp `RTTI Type Descriptor'
PUBLIC	??_R3CWinApp@@8					; CWinApp::`RTTI Class Hierarchy Descriptor'
PUBLIC	??_R2CWinApp@@8					; CWinApp::`RTTI Base Class Array'
PUBLIC	??_R1A@?0A@EA@CWinThread@@8			; CWinThread::`RTTI Base Class Descriptor at (0,-1,0,64)'
PUBLIC	??_R0?AVCWinThread@@@8				; CWinThread `RTTI Type Descriptor'
PUBLIC	??_R3CWinThread@@8				; CWinThread::`RTTI Class Hierarchy Descriptor'
PUBLIC	??_R2CWinThread@@8				; CWinThread::`RTTI Base Class Array'
PUBLIC	??_R1A@?0A@EA@CCmdTarget@@8			; CCmdTarget::`RTTI Base Class Descriptor at (0,-1,0,64)'
PUBLIC	??_R0?AVCCmdTarget@@@8				; CCmdTarget `RTTI Type Descriptor'
PUBLIC	??_R3CCmdTarget@@8				; CCmdTarget::`RTTI Class Hierarchy Descriptor'
PUBLIC	??_R2CCmdTarget@@8				; CCmdTarget::`RTTI Base Class Array'
PUBLIC	??_R1A@?0A@EA@CObject@@8			; CObject::`RTTI Base Class Descriptor at (0,-1,0,64)'
PUBLIC	??_R0?AVCObject@@@8				; CObject `RTTI Type Descriptor'
PUBLIC	??_R3CObject@@8					; CObject::`RTTI Class Hierarchy Descriptor'
PUBLIC	??_R2CObject@@8					; CObject::`RTTI Base Class Array'
PUBLIC	?InitInstance@CProHospitalApp@@UAEHXZ		; CProHospitalApp::InitInstance
PUBLIC	?SupportsRestartManager@CWinApp@@UBEHXZ		; CWinApp::SupportsRestartManager
PUBLIC	?SupportsApplicationRecovery@CWinApp@@UBEHXZ	; CWinApp::SupportsApplicationRecovery
PUBLIC	?SupportsAutosaveAtRestart@CWinApp@@UBEHXZ	; CWinApp::SupportsAutosaveAtRestart
PUBLIC	?SupportsAutosaveAtInterval@CWinApp@@UBEHXZ	; CWinApp::SupportsAutosaveAtInterval
PUBLIC	?ReopenPreviousFilesAtRestart@CWinApp@@UBEHXZ	; CWinApp::ReopenPreviousFilesAtRestart
PUBLIC	?RestoreAutosavedFilesAtRestart@CWinApp@@UBEHXZ	; CWinApp::RestoreAutosavedFilesAtRestart
PUBLIC	?GetApplicationRestartFlags@CWinApp@@UAEKXZ	; CWinApp::GetApplicationRestartFlags
PUBLIC	?GetApplicationRecoveryParameter@CWinApp@@UAEPAXXZ ; CWinApp::GetApplicationRecoveryParameter
PUBLIC	?GetApplicationRecoveryPingInterval@CWinApp@@UAEKXZ ; CWinApp::GetApplicationRecoveryPingInterval
EXTRN	??0CWinApp@@QAE@PB_W@Z:PROC			; CWinApp::CWinApp
EXTRN	??_7type_info@@6B@:QWORD			; type_info::`vftable'
EXTRN	?GetRuntimeClass@CWinApp@@UBEPAUCRuntimeClass@@XZ:PROC ; CWinApp::GetRuntimeClass
EXTRN	??_ECProHospitalApp@@UAEPAXI@Z:PROC		; CProHospitalApp::`vector deleting destructor'
EXTRN	?Serialize@CObject@@UAEXAAVCArchive@@@Z:PROC	; CObject::Serialize
EXTRN	?AssertValid@CWinApp@@UBEXXZ:PROC		; CWinApp::AssertValid
EXTRN	?Dump@CWinApp@@UBEXAAVCDumpContext@@@Z:PROC	; CWinApp::Dump
EXTRN	?OnCmdMsg@CCmdTarget@@UAEHIHPAXPAUAFX_CMDHANDLERINFO@@@Z:PROC ; CCmdTarget::OnCmdMsg
EXTRN	?OnFinalRelease@CCmdTarget@@UAEXXZ:PROC		; CCmdTarget::OnFinalRelease
EXTRN	?IsInvokeAllowed@CCmdTarget@@UAEHJ@Z:PROC	; CCmdTarget::IsInvokeAllowed
EXTRN	?GetDispatchIID@CCmdTarget@@UAEHPAU_GUID@@@Z:PROC ; CCmdTarget::GetDispatchIID
EXTRN	?GetTypeInfoCount@CCmdTarget@@UAEIXZ:PROC	; CCmdTarget::GetTypeInfoCount
EXTRN	?GetTypeLibCache@CCmdTarget@@UAEPAVCTypeLibCache@@XZ:PROC ; CCmdTarget::GetTypeLibCache
EXTRN	?GetTypeLib@CCmdTarget@@UAEJKPAPAUITypeLib@@@Z:PROC ; CCmdTarget::GetTypeLib
EXTRN	?GetCommandMap@CCmdTarget@@MBEPBUAFX_OLECMDMAP@@XZ:PROC ; CCmdTarget::GetCommandMap
EXTRN	?GetDispatchMap@CCmdTarget@@MBEPBUAFX_DISPMAP@@XZ:PROC ; CCmdTarget::GetDispatchMap
EXTRN	?GetConnectionMap@CCmdTarget@@MBEPBUAFX_CONNECTIONMAP@@XZ:PROC ; CCmdTarget::GetConnectionMap
EXTRN	?GetInterfaceMap@CCmdTarget@@MBEPBUAFX_INTERFACEMAP@@XZ:PROC ; CCmdTarget::GetInterfaceMap
EXTRN	?GetEventSinkMap@CCmdTarget@@MBEPBUAFX_EVENTSINKMAP@@XZ:PROC ; CCmdTarget::GetEventSinkMap
EXTRN	?OnCreateAggregates@CCmdTarget@@UAEHXZ:PROC	; CCmdTarget::OnCreateAggregates
EXTRN	?GetInterfaceHook@CCmdTarget@@UAEPAUIUnknown@@PBX@Z:PROC ; CCmdTarget::GetInterfaceHook
EXTRN	?GetExtraConnectionPoints@CCmdTarget@@MAEHPAVCPtrArray@@@Z:PROC ; CCmdTarget::GetExtraConnectionPoints
EXTRN	?GetConnectionHook@CCmdTarget@@MAEPAUIConnectionPoint@@ABU_GUID@@@Z:PROC ; CCmdTarget::GetConnectionHook
EXTRN	?Run@CWinApp@@UAEHXZ:PROC			; CWinApp::Run
EXTRN	?PreTranslateMessage@CWinThread@@UAEHPAUtagMSG@@@Z:PROC ; CWinThread::PreTranslateMessage
EXTRN	?PumpMessage@CWinThread@@UAEHXZ:PROC		; CWinThread::PumpMessage
EXTRN	?OnIdle@CWinApp@@UAEHJ@Z:PROC			; CWinApp::OnIdle
EXTRN	?IsIdleMessage@CWinThread@@UAEHPAUtagMSG@@@Z:PROC ; CWinThread::IsIdleMessage
EXTRN	?ExitInstance@CWinApp@@UAEHXZ:PROC		; CWinApp::ExitInstance
EXTRN	?ProcessWndProcException@CWinApp@@UAEJPAVCException@@PBUtagMSG@@@Z:PROC ; CWinApp::ProcessWndProcException
EXTRN	?ProcessMessageFilter@CWinThread@@UAEHHPAUtagMSG@@@Z:PROC ; CWinThread::ProcessMessageFilter
EXTRN	?GetMainWnd@CWinThread@@UAEPAVCWnd@@XZ:PROC	; CWinThread::GetMainWnd
EXTRN	?Delete@CWinThread@@UAEXXZ:PROC			; CWinThread::Delete
EXTRN	?GetProfileIntW@CWinApp@@UAEIPB_W0H@Z:PROC	; CWinApp::GetProfileIntW
EXTRN	?WriteProfileInt@CWinApp@@UAEHPB_W0H@Z:PROC	; CWinApp::WriteProfileInt
EXTRN	?GetProfileStringW@CWinApp@@UAE?AV?$CStringT@_WV?$StrTraitMFC_DLL@_WV?$ChTraitsCRT@_W@ATL@@@@@ATL@@PB_W00@Z:PROC ; CWinApp::GetProfileStringW
EXTRN	?WriteProfileStringW@CWinApp@@UAEHPB_W00@Z:PROC	; CWinApp::WriteProfileStringW
EXTRN	?GetProfileBinary@CWinApp@@UAEHPB_W0PAPAEPAI@Z:PROC ; CWinApp::GetProfileBinary
EXTRN	?WriteProfileBinary@CWinApp@@UAEHPB_W0PAEI@Z:PROC ; CWinApp::WriteProfileBinary
EXTRN	?InitLibId@CWinApp@@UAEXXZ:PROC			; CWinApp::InitLibId
EXTRN	?Register@CWinApp@@UAEHXZ:PROC			; CWinApp::Register
EXTRN	?Unregister@CWinApp@@UAEHXZ:PROC		; CWinApp::Unregister
EXTRN	?OpenDocumentFile@CWinApp@@UAEPAVCDocument@@PB_WH@Z:PROC ; CWinApp::OpenDocumentFile
EXTRN	?OpenDocumentFile@CWinApp@@UAEPAVCDocument@@PB_W@Z:PROC ; CWinApp::OpenDocumentFile
EXTRN	?AddToRecentFileList@CWinApp@@UAEXPB_W@Z:PROC	; CWinApp::AddToRecentFileList
EXTRN	?InitApplication@CWinApp@@UAEHXZ:PROC		; CWinApp::InitApplication
EXTRN	?SaveAllModified@CWinApp@@UAEHXZ:PROC		; CWinApp::SaveAllModified
EXTRN	?DoMessageBox@CWinApp@@UAEHPB_WII@Z:PROC	; CWinApp::DoMessageBox
EXTRN	?DoWaitCursor@CWinApp@@UAEXH@Z:PROC		; CWinApp::DoWaitCursor
EXTRN	?OnDDECommand@CWinApp@@UAEHPA_W@Z:PROC		; CWinApp::OnDDECommand
EXTRN	?WinHelpW@CWinApp@@UAEXKI@Z:PROC		; CWinApp::WinHelpW
EXTRN	?HtmlHelpW@CWinApp@@UAEXKI@Z:PROC		; CWinApp::HtmlHelpW
EXTRN	?WinHelpInternal@CWinApp@@UAEXKI@Z:PROC		; CWinApp::WinHelpInternal
EXTRN	?RegisterWithRestartManager@CWinApp@@UAEJPB_WKP6GKPAX@Z1KK@Z:PROC ; CWinApp::RegisterWithRestartManager
EXTRN	?RegisterWithRestartManager@CWinApp@@UAEJHABV?$CStringT@_WV?$StrTraitMFC_DLL@_WV?$ChTraitsCRT@_W@ATL@@@@@ATL@@@Z:PROC ; CWinApp::RegisterWithRestartManager
EXTRN	?ApplicationRecoveryCallback@CWinApp@@UAEKPAX@Z:PROC ; CWinApp::ApplicationRecoveryCallback
EXTRN	?GetDataRecoveryHandler@CWinApp@@UAEPAVCDataRecoveryHandler@@XZ:PROC ; CWinApp::GetDataRecoveryHandler
EXTRN	?IsTaskbarInteractionEnabled@CWinApp@@UAEHXZ:PROC ; CWinApp::IsTaskbarInteractionEnabled
EXTRN	?RestartInstance@CWinApp@@UAEHXZ:PROC		; CWinApp::RestartInstance
EXTRN	?LoadAppLangResourceDLL@CWinApp@@UAEPAUHINSTANCE__@@XZ:PROC ; CWinApp::LoadAppLangResourceDLL
EXTRN	?LoadSysPolicies@CWinApp@@UAEHXZ:PROC		; CWinApp::LoadSysPolicies
;	COMDAT ??_R2CObject@@8
rdata$r	SEGMENT
??_R2CObject@@8 DD FLAT:??_R1A@?0A@EA@CObject@@8	; CObject::`RTTI Base Class Array'
rdata$r	ENDS
;	COMDAT ??_R3CObject@@8
rdata$r	SEGMENT
??_R3CObject@@8 DD 00H					; CObject::`RTTI Class Hierarchy Descriptor'
	DD	00H
	DD	01H
	DD	FLAT:??_R2CObject@@8
rdata$r	ENDS
;	COMDAT ??_R0?AVCObject@@@8
_DATA	SEGMENT
??_R0?AVCObject@@@8 DD FLAT:??_7type_info@@6B@		; CObject `RTTI Type Descriptor'
	DD	00H
	DB	'.?AVCObject@@', 00H
_DATA	ENDS
;	COMDAT ??_R1A@?0A@EA@CObject@@8
rdata$r	SEGMENT
??_R1A@?0A@EA@CObject@@8 DD FLAT:??_R0?AVCObject@@@8	; CObject::`RTTI Base Class Descriptor at (0,-1,0,64)'
	DD	00H
	DD	00H
	DD	0ffffffffH
	DD	00H
	DD	040H
	DD	FLAT:??_R3CObject@@8
rdata$r	ENDS
;	COMDAT ??_R2CCmdTarget@@8
rdata$r	SEGMENT
??_R2CCmdTarget@@8 DD FLAT:??_R1A@?0A@EA@CCmdTarget@@8	; CCmdTarget::`RTTI Base Class Array'
	DD	FLAT:??_R1A@?0A@EA@CObject@@8
rdata$r	ENDS
;	COMDAT ??_R3CCmdTarget@@8
rdata$r	SEGMENT
??_R3CCmdTarget@@8 DD 00H				; CCmdTarget::`RTTI Class Hierarchy Descriptor'
	DD	00H
	DD	02H
	DD	FLAT:??_R2CCmdTarget@@8
rdata$r	ENDS
;	COMDAT ??_R0?AVCCmdTarget@@@8
_DATA	SEGMENT
??_R0?AVCCmdTarget@@@8 DD FLAT:??_7type_info@@6B@	; CCmdTarget `RTTI Type Descriptor'
	DD	00H
	DB	'.?AVCCmdTarget@@', 00H
_DATA	ENDS
;	COMDAT ??_R1A@?0A@EA@CCmdTarget@@8
rdata$r	SEGMENT
??_R1A@?0A@EA@CCmdTarget@@8 DD FLAT:??_R0?AVCCmdTarget@@@8 ; CCmdTarget::`RTTI Base Class Descriptor at (0,-1,0,64)'
	DD	01H
	DD	00H
	DD	0ffffffffH
	DD	00H
	DD	040H
	DD	FLAT:??_R3CCmdTarget@@8
rdata$r	ENDS
;	COMDAT ??_R2CWinThread@@8
rdata$r	SEGMENT
??_R2CWinThread@@8 DD FLAT:??_R1A@?0A@EA@CWinThread@@8	; CWinThread::`RTTI Base Class Array'
	DD	FLAT:??_R1A@?0A@EA@CCmdTarget@@8
	DD	FLAT:??_R1A@?0A@EA@CObject@@8
rdata$r	ENDS
;	COMDAT ??_R3CWinThread@@8
rdata$r	SEGMENT
??_R3CWinThread@@8 DD 00H				; CWinThread::`RTTI Class Hierarchy Descriptor'
	DD	00H
	DD	03H
	DD	FLAT:??_R2CWinThread@@8
rdata$r	ENDS
;	COMDAT ??_R0?AVCWinThread@@@8
_DATA	SEGMENT
??_R0?AVCWinThread@@@8 DD FLAT:??_7type_info@@6B@	; CWinThread `RTTI Type Descriptor'
	DD	00H
	DB	'.?AVCWinThread@@', 00H
_DATA	ENDS
;	COMDAT ??_R1A@?0A@EA@CWinThread@@8
rdata$r	SEGMENT
??_R1A@?0A@EA@CWinThread@@8 DD FLAT:??_R0?AVCWinThread@@@8 ; CWinThread::`RTTI Base Class Descriptor at (0,-1,0,64)'
	DD	02H
	DD	00H
	DD	0ffffffffH
	DD	00H
	DD	040H
	DD	FLAT:??_R3CWinThread@@8
rdata$r	ENDS
;	COMDAT ??_R2CWinApp@@8
rdata$r	SEGMENT
??_R2CWinApp@@8 DD FLAT:??_R1A@?0A@EA@CWinApp@@8	; CWinApp::`RTTI Base Class Array'
	DD	FLAT:??_R1A@?0A@EA@CWinThread@@8
	DD	FLAT:??_R1A@?0A@EA@CCmdTarget@@8
	DD	FLAT:??_R1A@?0A@EA@CObject@@8
rdata$r	ENDS
;	COMDAT ??_R3CWinApp@@8
rdata$r	SEGMENT
??_R3CWinApp@@8 DD 00H					; CWinApp::`RTTI Class Hierarchy Descriptor'
	DD	00H
	DD	04H
	DD	FLAT:??_R2CWinApp@@8
rdata$r	ENDS
;	COMDAT ??_R0?AVCWinApp@@@8
_DATA	SEGMENT
??_R0?AVCWinApp@@@8 DD FLAT:??_7type_info@@6B@		; CWinApp `RTTI Type Descriptor'
	DD	00H
	DB	'.?AVCWinApp@@', 00H
_DATA	ENDS
;	COMDAT ??_R1A@?0A@EA@CWinApp@@8
rdata$r	SEGMENT
??_R1A@?0A@EA@CWinApp@@8 DD FLAT:??_R0?AVCWinApp@@@8	; CWinApp::`RTTI Base Class Descriptor at (0,-1,0,64)'
	DD	03H
	DD	00H
	DD	0ffffffffH
	DD	00H
	DD	040H
	DD	FLAT:??_R3CWinApp@@8
rdata$r	ENDS
;	COMDAT ??_R1A@?0A@EA@CProHospitalApp@@8
rdata$r	SEGMENT
??_R1A@?0A@EA@CProHospitalApp@@8 DD FLAT:??_R0?AVCProHospitalApp@@@8 ; CProHospitalApp::`RTTI Base Class Descriptor at (0,-1,0,64)'
	DD	04H
	DD	00H
	DD	0ffffffffH
	DD	00H
	DD	040H
	DD	FLAT:??_R3CProHospitalApp@@8
rdata$r	ENDS
;	COMDAT ??_R2CProHospitalApp@@8
rdata$r	SEGMENT
??_R2CProHospitalApp@@8 DD FLAT:??_R1A@?0A@EA@CProHospitalApp@@8 ; CProHospitalApp::`RTTI Base Class Array'
	DD	FLAT:??_R1A@?0A@EA@CWinApp@@8
	DD	FLAT:??_R1A@?0A@EA@CWinThread@@8
	DD	FLAT:??_R1A@?0A@EA@CCmdTarget@@8
	DD	FLAT:??_R1A@?0A@EA@CObject@@8
rdata$r	ENDS
;	COMDAT ??_R3CProHospitalApp@@8
rdata$r	SEGMENT
??_R3CProHospitalApp@@8 DD 00H				; CProHospitalApp::`RTTI Class Hierarchy Descriptor'
	DD	00H
	DD	05H
	DD	FLAT:??_R2CProHospitalApp@@8
rdata$r	ENDS
;	COMDAT ??_R0?AVCProHospitalApp@@@8
_DATA	SEGMENT
??_R0?AVCProHospitalApp@@@8 DD FLAT:??_7type_info@@6B@	; CProHospitalApp `RTTI Type Descriptor'
	DD	00H
	DB	'.?AVCProHospitalApp@@', 00H
_DATA	ENDS
;	COMDAT ??_R4CProHospitalApp@@6B@
rdata$r	SEGMENT
??_R4CProHospitalApp@@6B@ DD 00H			; CProHospitalApp::`RTTI Complete Object Locator'
	DD	00H
	DD	00H
	DD	FLAT:??_R0?AVCProHospitalApp@@@8
	DD	FLAT:??_R3CProHospitalApp@@8
rdata$r	ENDS
;	COMDAT ??_7CProHospitalApp@@6B@
CONST	SEGMENT
??_7CProHospitalApp@@6B@ DD FLAT:??_R4CProHospitalApp@@6B@ ; CProHospitalApp::`vftable'
	DD	FLAT:?GetRuntimeClass@CWinApp@@UBEPAUCRuntimeClass@@XZ
	DD	FLAT:??_ECProHospitalApp@@UAEPAXI@Z
	DD	FLAT:?Serialize@CObject@@UAEXAAVCArchive@@@Z
	DD	FLAT:?AssertValid@CWinApp@@UBEXXZ
	DD	FLAT:?Dump@CWinApp@@UBEXAAVCDumpContext@@@Z
	DD	FLAT:?OnCmdMsg@CCmdTarget@@UAEHIHPAXPAUAFX_CMDHANDLERINFO@@@Z
	DD	FLAT:?OnFinalRelease@CCmdTarget@@UAEXXZ
	DD	FLAT:?IsInvokeAllowed@CCmdTarget@@UAEHJ@Z
	DD	FLAT:?GetDispatchIID@CCmdTarget@@UAEHPAU_GUID@@@Z
	DD	FLAT:?GetTypeInfoCount@CCmdTarget@@UAEIXZ
	DD	FLAT:?GetTypeLibCache@CCmdTarget@@UAEPAVCTypeLibCache@@XZ
	DD	FLAT:?GetTypeLib@CCmdTarget@@UAEJKPAPAUITypeLib@@@Z
	DD	FLAT:?GetMessageMap@CProHospitalApp@@MBEPBUAFX_MSGMAP@@XZ
	DD	FLAT:?GetCommandMap@CCmdTarget@@MBEPBUAFX_OLECMDMAP@@XZ
	DD	FLAT:?GetDispatchMap@CCmdTarget@@MBEPBUAFX_DISPMAP@@XZ
	DD	FLAT:?GetConnectionMap@CCmdTarget@@MBEPBUAFX_CONNECTIONMAP@@XZ
	DD	FLAT:?GetInterfaceMap@CCmdTarget@@MBEPBUAFX_INTERFACEMAP@@XZ
	DD	FLAT:?GetEventSinkMap@CCmdTarget@@MBEPBUAFX_EVENTSINKMAP@@XZ
	DD	FLAT:?OnCreateAggregates@CCmdTarget@@UAEHXZ
	DD	FLAT:?GetInterfaceHook@CCmdTarget@@UAEPAUIUnknown@@PBX@Z
	DD	FLAT:?GetExtraConnectionPoints@CCmdTarget@@MAEHPAVCPtrArray@@@Z
	DD	FLAT:?GetConnectionHook@CCmdTarget@@MAEPAUIConnectionPoint@@ABU_GUID@@@Z
	DD	FLAT:?InitInstance@CProHospitalApp@@UAEHXZ
	DD	FLAT:?Run@CWinApp@@UAEHXZ
	DD	FLAT:?PreTranslateMessage@CWinThread@@UAEHPAUtagMSG@@@Z
	DD	FLAT:?PumpMessage@CWinThread@@UAEHXZ
	DD	FLAT:?OnIdle@CWinApp@@UAEHJ@Z
	DD	FLAT:?IsIdleMessage@CWinThread@@UAEHPAUtagMSG@@@Z
	DD	FLAT:?ExitInstance@CWinApp@@UAEHXZ
	DD	FLAT:?ProcessWndProcException@CWinApp@@UAEJPAVCException@@PBUtagMSG@@@Z
	DD	FLAT:?ProcessMessageFilter@CWinThread@@UAEHHPAUtagMSG@@@Z
	DD	FLAT:?GetMainWnd@CWinThread@@UAEPAVCWnd@@XZ
	DD	FLAT:?Delete@CWinThread@@UAEXXZ
	DD	FLAT:?GetProfileIntW@CWinApp@@UAEIPB_W0H@Z
	DD	FLAT:?WriteProfileInt@CWinApp@@UAEHPB_W0H@Z
	DD	FLAT:?GetProfileStringW@CWinApp@@UAE?AV?$CStringT@_WV?$StrTraitMFC_DLL@_WV?$ChTraitsCRT@_W@ATL@@@@@ATL@@PB_W00@Z
	DD	FLAT:?WriteProfileStringW@CWinApp@@UAEHPB_W00@Z
	DD	FLAT:?GetProfileBinary@CWinApp@@UAEHPB_W0PAPAEPAI@Z
	DD	FLAT:?WriteProfileBinary@CWinApp@@UAEHPB_W0PAEI@Z
	DD	FLAT:?InitLibId@CWinApp@@UAEXXZ
	DD	FLAT:?Register@CWinApp@@UAEHXZ
	DD	FLAT:?Unregister@CWinApp@@UAEHXZ
	DD	FLAT:?OpenDocumentFile@CWinApp@@UAEPAVCDocument@@PB_WH@Z
	DD	FLAT:?OpenDocumentFile@CWinApp@@UAEPAVCDocument@@PB_W@Z
	DD	FLAT:?AddToRecentFileList@CWinApp@@UAEXPB_W@Z
	DD	FLAT:?InitApplication@CWinApp@@UAEHXZ
	DD	FLAT:?SaveAllModified@CWinApp@@UAEHXZ
	DD	FLAT:?DoMessageBox@CWinApp@@UAEHPB_WII@Z
	DD	FLAT:?DoWaitCursor@CWinApp@@UAEXH@Z
	DD	FLAT:?OnDDECommand@CWinApp@@UAEHPA_W@Z
	DD	FLAT:?WinHelpW@CWinApp@@UAEXKI@Z
	DD	FLAT:?HtmlHelpW@CWinApp@@UAEXKI@Z
	DD	FLAT:?WinHelpInternal@CWinApp@@UAEXKI@Z
	DD	FLAT:?RegisterWithRestartManager@CWinApp@@UAEJPB_WKP6GKPAX@Z1KK@Z
	DD	FLAT:?RegisterWithRestartManager@CWinApp@@UAEJHABV?$CStringT@_WV?$StrTraitMFC_DLL@_WV?$ChTraitsCRT@_W@ATL@@@@@ATL@@@Z
	DD	FLAT:?ApplicationRecoveryCallback@CWinApp@@UAEKPAX@Z
	DD	FLAT:?SupportsRestartManager@CWinApp@@UBEHXZ
	DD	FLAT:?SupportsApplicationRecovery@CWinApp@@UBEHXZ
	DD	FLAT:?SupportsAutosaveAtRestart@CWinApp@@UBEHXZ
	DD	FLAT:?SupportsAutosaveAtInterval@CWinApp@@UBEHXZ
	DD	FLAT:?ReopenPreviousFilesAtRestart@CWinApp@@UBEHXZ
	DD	FLAT:?RestoreAutosavedFilesAtRestart@CWinApp@@UBEHXZ
	DD	FLAT:?GetApplicationRestartFlags@CWinApp@@UAEKXZ
	DD	FLAT:?GetApplicationRecoveryParameter@CWinApp@@UAEPAXXZ
	DD	FLAT:?GetApplicationRecoveryPingInterval@CWinApp@@UAEKXZ
	DD	FLAT:?GetDataRecoveryHandler@CWinApp@@UAEPAVCDataRecoveryHandler@@XZ
	DD	FLAT:?IsTaskbarInteractionEnabled@CWinApp@@UAEHXZ
	DD	FLAT:?RestartInstance@CWinApp@@UAEHXZ
	DD	FLAT:?LoadAppLangResourceDLL@CWinApp@@UAEPAUHINSTANCE__@@XZ
	DD	FLAT:?LoadSysPolicies@CWinApp@@UAEHXZ
; Function compile flags: /Odtp /RTCsu /ZI
CONST	ENDS
;	COMDAT ??0CProHospitalApp@@QAE@XZ
_TEXT	SEGMENT
_this$ = -8						; size = 4
??0CProHospitalApp@@QAE@XZ PROC				; CProHospitalApp::CProHospitalApp, COMDAT
; _this$ = ecx
; Line 24
	push	ebp
	mov	ebp, esp
	sub	esp, 204				; 000000ccH
	push	ebx
	push	esi
	push	edi
	push	ecx
	lea	edi, DWORD PTR [ebp-204]
	mov	ecx, 51					; 00000033H
	mov	eax, -858993460				; ccccccccH
	rep stosd
	pop	ecx
	mov	DWORD PTR _this$[ebp], ecx
	push	0
	mov	ecx, DWORD PTR _this$[ebp]
	call	??0CWinApp@@QAE@PB_W@Z			; CWinApp::CWinApp
	mov	eax, DWORD PTR _this$[ebp]
	mov	DWORD PTR [eax], OFFSET ??_7CProHospitalApp@@6B@
; Line 26
	mov	eax, DWORD PTR _this$[ebp]
	mov	DWORD PTR [eax+172], 1
; Line 30
	mov	eax, DWORD PTR _this$[ebp]
	pop	edi
	pop	esi
	pop	ebx
	add	esp, 204				; 000000ccH
	cmp	ebp, esp
	call	__RTC_CheckEsp
	mov	esp, ebp
	pop	ebp
	ret	0
??0CProHospitalApp@@QAE@XZ ENDP				; CProHospitalApp::CProHospitalApp
_TEXT	ENDS
PUBLIC	??1CProHospitalApp@@UAE@XZ			; CProHospitalApp::~CProHospitalApp
EXTRN	??3CObject@@SGXPAX@Z:PROC			; CObject::operator delete
; Function compile flags: /Odtp /RTCsu /ZI
;	COMDAT ??_GCProHospitalApp@@UAEPAXI@Z
_TEXT	SEGMENT
_this$ = -8						; size = 4
___flags$ = 8						; size = 4
??_GCProHospitalApp@@UAEPAXI@Z PROC			; CProHospitalApp::`scalar deleting destructor', COMDAT
; _this$ = ecx
	push	ebp
	mov	ebp, esp
	sub	esp, 204				; 000000ccH
	push	ebx
	push	esi
	push	edi
	push	ecx
	lea	edi, DWORD PTR [ebp-204]
	mov	ecx, 51					; 00000033H
	mov	eax, -858993460				; ccccccccH
	rep stosd
	pop	ecx
	mov	DWORD PTR _this$[ebp], ecx
	mov	ecx, DWORD PTR _this$[ebp]
	call	??1CProHospitalApp@@UAE@XZ
	mov	eax, DWORD PTR ___flags$[ebp]
	and	eax, 1
	je	SHORT $LN1@scalar
	mov	eax, DWORD PTR _this$[ebp]
	push	eax
	call	??3CObject@@SGXPAX@Z			; CObject::operator delete
$LN1@scalar:
	mov	eax, DWORD PTR _this$[ebp]
	pop	edi
	pop	esi
	pop	ebx
	add	esp, 204				; 000000ccH
	cmp	ebp, esp
	call	__RTC_CheckEsp
	mov	esp, ebp
	pop	ebp
	ret	4
??_GCProHospitalApp@@UAEPAXI@Z ENDP			; CProHospitalApp::`scalar deleting destructor'
_TEXT	ENDS
EXTRN	??1CWinApp@@UAE@XZ:PROC				; CWinApp::~CWinApp
; Function compile flags: /Odtp /RTCsu /ZI
;	COMDAT ??1CProHospitalApp@@UAE@XZ
_TEXT	SEGMENT
_this$ = -8						; size = 4
??1CProHospitalApp@@UAE@XZ PROC				; CProHospitalApp::~CProHospitalApp, COMDAT
; _this$ = ecx
	push	ebp
	mov	ebp, esp
	sub	esp, 204				; 000000ccH
	push	ebx
	push	esi
	push	edi
	push	ecx
	lea	edi, DWORD PTR [ebp-204]
	mov	ecx, 51					; 00000033H
	mov	eax, -858993460				; ccccccccH
	rep stosd
	pop	ecx
	mov	DWORD PTR _this$[ebp], ecx
	mov	ecx, DWORD PTR _this$[ebp]
	call	??1CWinApp@@UAE@XZ			; CWinApp::~CWinApp
	pop	edi
	pop	esi
	pop	ebx
	add	esp, 204				; 000000ccH
	cmp	ebp, esp
	call	__RTC_CheckEsp
	mov	esp, ebp
	pop	ebp
	ret	0
??1CProHospitalApp@@UAE@XZ ENDP				; CProHospitalApp::~CProHospitalApp
_TEXT	ENDS
PUBLIC	??1CProHospitalDlg@@UAE@XZ			; CProHospitalDlg::~CProHospitalDlg
PUBLIC	??_C@_1EO@KNLLELLP@?$AAL?$AAo?$AAc?$AAa?$AAl?$AA?5?$AAA?$AAp?$AAp?$AAW?$AAi?$AAz?$AAa?$AAr?$AAd?$AA?9?$AAG?$AAe?$AAn?$AAe?$AAr?$AAa?$AAt?$AAe?$AAd?$AA?5?$AAA?$AAp?$AAp?$AAl?$AAi?$AAc@ ; `string'
PUBLIC	??_C@_0FA@CCDNCDNJ@d?3?2?N?R?$LF?D?N?D?$LF?$LF?2visual?5studio?52010?2p@ ; `string'
PUBLIC	?__LINE__Var@?1??InitInstance@CProHospitalApp@@UAEHXZ@4JA ; `CProHospitalApp::InitInstance'::`2'::__LINE__Var
EXTRN	??3CObject@@SGXPAXPBDH@Z:PROC			; CObject::operator delete
EXTRN	?DoModal@CDialog@@UAEHXZ:PROC			; CDialog::DoModal
EXTRN	??0CProHospitalDlg@@QAE@PAVCWnd@@@Z:PROC	; CProHospitalDlg::CProHospitalDlg
EXTRN	?SetRegistryKey@CWinApp@@IAEXPB_W@Z:PROC	; CWinApp::SetRegistryKey
EXTRN	??0CShellManager@@QAE@XZ:PROC			; CShellManager::CShellManager
EXTRN	??2CObject@@SGPAXIPBDH@Z:PROC			; CObject::operator new
EXTRN	?AfxEnableControlContainer@@YAXPAVCOccManager@@@Z:PROC ; AfxEnableControlContainer
EXTRN	?InitInstance@CWinApp@@UAEHXZ:PROC		; CWinApp::InitInstance
EXTRN	__imp__InitCommonControlsEx@4:PROC
EXTRN	___security_cookie:DWORD
EXTRN	___CxxFrameHandler3:PROC
EXTRN	@__security_check_cookie@4:PROC
EXTRN	@_RTC_CheckStackVars@8:PROC
;	COMDAT ??_C@_1EO@KNLLELLP@?$AAL?$AAo?$AAc?$AAa?$AAl?$AA?5?$AAA?$AAp?$AAp?$AAW?$AAi?$AAz?$AAa?$AAr?$AAd?$AA?9?$AAG?$AAe?$AAn?$AAe?$AAr?$AAa?$AAt?$AAe?$AAd?$AA?5?$AAA?$AAp?$AAp?$AAl?$AAi?$AAc@
CONST	SEGMENT
??_C@_1EO@KNLLELLP@?$AAL?$AAo?$AAc?$AAa?$AAl?$AA?5?$AAA?$AAp?$AAp?$AAW?$AAi?$AAz?$AAa?$AAr?$AAd?$AA?9?$AAG?$AAe?$AAn?$AAe?$AAr?$AAa?$AAt?$AAe?$AAd?$AA?5?$AAA?$AAp?$AAp?$AAl?$AAi?$AAc@ DB 'L'
	DB	00H, 'o', 00H, 'c', 00H, 'a', 00H, 'l', 00H, ' ', 00H, 'A', 00H
	DB	'p', 00H, 'p', 00H, 'W', 00H, 'i', 00H, 'z', 00H, 'a', 00H, 'r'
	DB	00H, 'd', 00H, '-', 00H, 'G', 00H, 'e', 00H, 'n', 00H, 'e', 00H
	DB	'r', 00H, 'a', 00H, 't', 00H, 'e', 00H, 'd', 00H, ' ', 00H, 'A'
	DB	00H, 'p', 00H, 'p', 00H, 'l', 00H, 'i', 00H, 'c', 00H, 'a', 00H
	DB	't', 00H, 'i', 00H, 'o', 00H, 'n', 00H, 's', 00H, 00H, 00H ; `string'
CONST	ENDS
;	COMDAT ??_C@_0FA@CCDNCDNJ@d?3?2?N?R?$LF?D?N?D?$LF?$LF?2visual?5studio?52010?2p@
CONST	SEGMENT
??_C@_0FA@CCDNCDNJ@d?3?2?N?R?$LF?D?N?D?$LF?$LF?2visual?5studio?52010?2p@ DB 'd'
	DB	':\', 0ceH, 0d2H, 0b5H, 0c4H, 0ceH, 0c4H, 0b5H, 0b5H, '\visual'
	DB	' studio 2010\projects\prohospital\prohospital\prohospital.cpp'
	DB	00H						; `string'
CONST	ENDS
;	COMDAT ?__LINE__Var@?1??InitInstance@CProHospitalApp@@UAEHXZ@4JA
_DATA	SEGMENT
?__LINE__Var@?1??InitInstance@CProHospitalApp@@UAEHXZ@4JA DD 029H ; `CProHospitalApp::InitInstance'::`2'::__LINE__Var
_DATA	ENDS
;	COMDAT xdata$x
xdata$x	SEGMENT
__unwindtable$?InitInstance@CProHospitalApp@@UAEHXZ DD 0ffffffffH
	DD	FLAT:__unwindfunclet$?InitInstance@CProHospitalApp@@UAEHXZ$0
	DD	0ffffffffH
	DD	FLAT:__unwindfunclet$?InitInstance@CProHospitalApp@@UAEHXZ$1
__ehfuncinfo$?InitInstance@CProHospitalApp@@UAEHXZ DD 019930522H
	DD	02H
	DD	FLAT:__unwindtable$?InitInstance@CProHospitalApp@@UAEHXZ
	DD	2 DUP(00H)
	DD	2 DUP(00H)
	DD	00H
	DD	01H
; Function compile flags: /Odtp /RTCsu /ZI
xdata$x	ENDS
;	COMDAT ?InitInstance@CProHospitalApp@@UAEHXZ
_TEXT	SEGMENT
tv154 = -516						; size = 4
tv84 = -516						; size = 4
$T215722 = -508						; size = 4
$T215723 = -496						; size = 4
$T215726 = -484						; size = 4
$T215727 = -472						; size = 4
$T215730 = -460						; size = 4
_nResponse$ = -256					; size = 4
_dlg$ = -244						; size = 188
_pShellManager$ = -48					; size = 4
_InitCtrls$ = -36					; size = 8
_this$ = -20						; size = 4
__$EHRec$ = -12						; size = 12
?InitInstance@CProHospitalApp@@UAEHXZ PROC		; CProHospitalApp::InitInstance, COMDAT
; _this$ = ecx
; Line 41
	push	ebp
	mov	ebp, esp
	push	-1
	push	__ehhandler$?InitInstance@CProHospitalApp@@UAEHXZ
	mov	eax, DWORD PTR fs:0
	push	eax
	sub	esp, 504				; 000001f8H
	push	ebx
	push	esi
	push	edi
	push	ecx
	lea	edi, DWORD PTR [ebp-516]
	mov	ecx, 126				; 0000007eH
	mov	eax, -858993460				; ccccccccH
	rep stosd
	pop	ecx
	mov	eax, DWORD PTR ___security_cookie
	xor	eax, ebp
	push	eax
	lea	eax, DWORD PTR __$EHRec$[ebp]
	mov	DWORD PTR fs:0, eax
	mov	DWORD PTR _this$[ebp], ecx
; Line 46
	mov	DWORD PTR _InitCtrls$[ebp], 8
; Line 49
	mov	DWORD PTR _InitCtrls$[ebp+4], 255	; 000000ffH
; Line 50
	mov	esi, esp
	lea	eax, DWORD PTR _InitCtrls$[ebp]
	push	eax
	call	DWORD PTR __imp__InitCommonControlsEx@4
	cmp	esi, esp
	call	__RTC_CheckEsp
; Line 52
	mov	ecx, DWORD PTR _this$[ebp]
	call	?InitInstance@CWinApp@@UAEHXZ		; CWinApp::InitInstance
; Line 55
	push	0
	call	?AfxEnableControlContainer@@YAXPAVCOccManager@@@Z ; AfxEnableControlContainer
	add	esp, 4
; Line 59
	mov	eax, DWORD PTR ?__LINE__Var@?1??InitInstance@CProHospitalApp@@UAEHXZ@4JA
	add	eax, 18					; 00000012H
	push	eax
	push	OFFSET ??_C@_0FA@CCDNCDNJ@d?3?2?N?R?$LF?D?N?D?$LF?$LF?2visual?5studio?52010?2p@
	push	12					; 0000000cH
	call	??2CObject@@SGPAXIPBDH@Z		; CObject::operator new
	mov	DWORD PTR $T215723[ebp], eax
	mov	DWORD PTR __$EHRec$[ebp+8], 0
	cmp	DWORD PTR $T215723[ebp], 0
	je	SHORT $LN7@InitInstan
	mov	ecx, DWORD PTR $T215723[ebp]
	call	??0CShellManager@@QAE@XZ		; CShellManager::CShellManager
	mov	DWORD PTR tv84[ebp], eax
	jmp	SHORT $LN8@InitInstan
$LN7@InitInstan:
	mov	DWORD PTR tv84[ebp], 0
$LN8@InitInstan:
	mov	ecx, DWORD PTR tv84[ebp]
	mov	DWORD PTR $T215722[ebp], ecx
	mov	DWORD PTR __$EHRec$[ebp+8], -1
	mov	edx, DWORD PTR $T215722[ebp]
	mov	DWORD PTR _pShellManager$[ebp], edx
; Line 68
	push	OFFSET ??_C@_1EO@KNLLELLP@?$AAL?$AAo?$AAc?$AAa?$AAl?$AA?5?$AAA?$AAp?$AAp?$AAW?$AAi?$AAz?$AAa?$AAr?$AAd?$AA?9?$AAG?$AAe?$AAn?$AAe?$AAr?$AAa?$AAt?$AAe?$AAd?$AA?5?$AAA?$AAp?$AAp?$AAl?$AAi?$AAc@
	mov	ecx, DWORD PTR _this$[ebp]
	call	?SetRegistryKey@CWinApp@@IAEXPB_W@Z	; CWinApp::SetRegistryKey
; Line 70
	push	0
	lea	ecx, DWORD PTR _dlg$[ebp]
	call	??0CProHospitalDlg@@QAE@PAVCWnd@@@Z	; CProHospitalDlg::CProHospitalDlg
	mov	DWORD PTR __$EHRec$[ebp+8], 1
; Line 71
	mov	eax, DWORD PTR _this$[ebp]
	lea	ecx, DWORD PTR _dlg$[ebp]
	mov	DWORD PTR [eax+32], ecx
; Line 72
	lea	ecx, DWORD PTR _dlg$[ebp]
	call	?DoModal@CDialog@@UAEHXZ		; CDialog::DoModal
	mov	DWORD PTR _nResponse$[ebp], eax
; Line 85
	cmp	DWORD PTR _pShellManager$[ebp], 0
	je	SHORT $LN1@InitInstan
; Line 87
	mov	eax, DWORD PTR _pShellManager$[ebp]
	mov	DWORD PTR $T215727[ebp], eax
	mov	ecx, DWORD PTR $T215727[ebp]
	mov	DWORD PTR $T215726[ebp], ecx
	cmp	DWORD PTR $T215726[ebp], 0
	je	SHORT $LN9@InitInstan
	mov	esi, esp
	push	1
	mov	edx, DWORD PTR $T215726[ebp]
	mov	eax, DWORD PTR [edx]
	mov	ecx, DWORD PTR $T215726[ebp]
	mov	edx, DWORD PTR [eax+4]
	call	edx
	cmp	esi, esp
	call	__RTC_CheckEsp
	mov	DWORD PTR tv154[ebp], eax
	jmp	SHORT $LN1@InitInstan
$LN9@InitInstan:
	mov	DWORD PTR tv154[ebp], 0
$LN1@InitInstan:
; Line 92
	mov	DWORD PTR $T215730[ebp], 0
	mov	DWORD PTR __$EHRec$[ebp+8], -1
	lea	ecx, DWORD PTR _dlg$[ebp]
	call	??1CProHospitalDlg@@UAE@XZ
	mov	eax, DWORD PTR $T215730[ebp]
; Line 93
	push	edx
	mov	ecx, ebp
	push	eax
	lea	edx, DWORD PTR $LN17@InitInstan
	call	@_RTC_CheckStackVars@8
	pop	eax
	pop	edx
	mov	ecx, DWORD PTR __$EHRec$[ebp]
	mov	DWORD PTR fs:0, ecx
	pop	ecx
	pop	edi
	pop	esi
	pop	ebx
	add	esp, 516				; 00000204H
	cmp	ebp, esp
	call	__RTC_CheckEsp
	mov	esp, ebp
	pop	ebp
	ret	0
	npad	3
$LN17@InitInstan:
	DD	2
	DD	$LN16@InitInstan
$LN16@InitInstan:
	DD	-36					; ffffffdcH
	DD	8
	DD	$LN13@InitInstan
	DD	-244					; ffffff0cH
	DD	188					; 000000bcH
	DD	$LN14@InitInstan
$LN14@InitInstan:
	DB	100					; 00000064H
	DB	108					; 0000006cH
	DB	103					; 00000067H
	DB	0
$LN13@InitInstan:
	DB	73					; 00000049H
	DB	110					; 0000006eH
	DB	105					; 00000069H
	DB	116					; 00000074H
	DB	67					; 00000043H
	DB	116					; 00000074H
	DB	114					; 00000072H
	DB	108					; 0000006cH
	DB	115					; 00000073H
	DB	0
_TEXT	ENDS
;	COMDAT text$x
text$x	SEGMENT
__unwindfunclet$?InitInstance@CProHospitalApp@@UAEHXZ$0:
	mov	eax, DWORD PTR ?__LINE__Var@?1??InitInstance@CProHospitalApp@@UAEHXZ@4JA
	add	eax, 18					; 00000012H
	push	eax
	push	OFFSET ??_C@_0FA@CCDNCDNJ@d?3?2?N?R?$LF?D?N?D?$LF?$LF?2visual?5studio?52010?2p@
	mov	ecx, DWORD PTR $T215723[ebp]
	push	ecx
	call	??3CObject@@SGXPAXPBDH@Z		; CObject::operator delete
	ret	0
__unwindfunclet$?InitInstance@CProHospitalApp@@UAEHXZ$1:
	lea	ecx, DWORD PTR _dlg$[ebp]
	jmp	??1CProHospitalDlg@@UAE@XZ
__ehhandler$?InitInstance@CProHospitalApp@@UAEHXZ:
	mov	edx, DWORD PTR [esp+8]
	lea	eax, DWORD PTR [edx+12]
	mov	ecx, DWORD PTR [edx-520]
	xor	ecx, eax
	call	@__security_check_cookie@4
	mov	eax, OFFSET __ehfuncinfo$?InitInstance@CProHospitalApp@@UAEHXZ
	jmp	___CxxFrameHandler3
text$x	ENDS
?InitInstance@CProHospitalApp@@UAEHXZ ENDP		; CProHospitalApp::InitInstance
PUBLIC	??1CDialogEx@@UAE@XZ				; CDialogEx::~CDialogEx
; Function compile flags: /Odtp /RTCsu /ZI
;	COMDAT ??1CProHospitalDlg@@UAE@XZ
_TEXT	SEGMENT
_this$ = -8						; size = 4
??1CProHospitalDlg@@UAE@XZ PROC				; CProHospitalDlg::~CProHospitalDlg, COMDAT
; _this$ = ecx
	push	ebp
	mov	ebp, esp
	sub	esp, 204				; 000000ccH
	push	ebx
	push	esi
	push	edi
	push	ecx
	lea	edi, DWORD PTR [ebp-204]
	mov	ecx, 51					; 00000033H
	mov	eax, -858993460				; ccccccccH
	rep stosd
	pop	ecx
	mov	DWORD PTR _this$[ebp], ecx
	mov	ecx, DWORD PTR _this$[ebp]
	call	??1CDialogEx@@UAE@XZ
	pop	edi
	pop	esi
	pop	ebx
	add	esp, 204				; 000000ccH
	cmp	ebp, esp
	call	__RTC_CheckEsp
	mov	esp, ebp
	pop	ebp
	ret	0
??1CProHospitalDlg@@UAE@XZ ENDP				; CProHospitalDlg::~CProHospitalDlg
_TEXT	ENDS
EXTRN	??1CDialog@@UAE@XZ:PROC				; CDialog::~CDialog
EXTRN	??1CBrush@@UAE@XZ:PROC				; CBrush::~CBrush
EXTRN	??1CDialogImpl@@MAE@XZ:PROC			; CDialogImpl::~CDialogImpl
;	COMDAT xdata$x
xdata$x	SEGMENT
__unwindtable$??1CDialogEx@@UAE@XZ DD 0ffffffffH
	DD	FLAT:__unwindfunclet$??1CDialogEx@@UAE@XZ$0
	DD	00H
	DD	FLAT:__unwindfunclet$??1CDialogEx@@UAE@XZ$1
__ehfuncinfo$??1CDialogEx@@UAE@XZ DD 019930522H
	DD	02H
	DD	FLAT:__unwindtable$??1CDialogEx@@UAE@XZ
	DD	2 DUP(00H)
	DD	2 DUP(00H)
	DD	00H
	DD	01H
; Function compile flags: /Odtp /RTCsu /ZI
xdata$x	ENDS
;	COMDAT ??1CDialogEx@@UAE@XZ
_TEXT	SEGMENT
_this$ = -20						; size = 4
__$EHRec$ = -12						; size = 12
??1CDialogEx@@UAE@XZ PROC				; CDialogEx::~CDialogEx, COMDAT
; _this$ = ecx
	push	ebp
	mov	ebp, esp
	push	-1
	push	__ehhandler$??1CDialogEx@@UAE@XZ
	mov	eax, DWORD PTR fs:0
	push	eax
	sub	esp, 204				; 000000ccH
	push	ebx
	push	esi
	push	edi
	push	ecx
	lea	edi, DWORD PTR [ebp-216]
	mov	ecx, 51					; 00000033H
	mov	eax, -858993460				; ccccccccH
	rep stosd
	pop	ecx
	mov	eax, DWORD PTR ___security_cookie
	xor	eax, ebp
	push	eax
	lea	eax, DWORD PTR __$EHRec$[ebp]
	mov	DWORD PTR fs:0, eax
	mov	DWORD PTR _this$[ebp], ecx
	mov	DWORD PTR __$EHRec$[ebp+8], 1
	mov	ecx, DWORD PTR _this$[ebp]
	add	ecx, 172				; 000000acH
	call	??1CDialogImpl@@MAE@XZ			; CDialogImpl::~CDialogImpl
	mov	BYTE PTR __$EHRec$[ebp+8], 0
	mov	ecx, DWORD PTR _this$[ebp]
	add	ecx, 160				; 000000a0H
	call	??1CBrush@@UAE@XZ			; CBrush::~CBrush
	mov	DWORD PTR __$EHRec$[ebp+8], -1
	mov	ecx, DWORD PTR _this$[ebp]
	call	??1CDialog@@UAE@XZ			; CDialog::~CDialog
	mov	ecx, DWORD PTR __$EHRec$[ebp]
	mov	DWORD PTR fs:0, ecx
	pop	ecx
	pop	edi
	pop	esi
	pop	ebx
	add	esp, 216				; 000000d8H
	cmp	ebp, esp
	call	__RTC_CheckEsp
	mov	esp, ebp
	pop	ebp
	ret	0
_TEXT	ENDS
;	COMDAT text$x
text$x	SEGMENT
__unwindfunclet$??1CDialogEx@@UAE@XZ$0:
	mov	ecx, DWORD PTR _this$[ebp]
	jmp	??1CDialog@@UAE@XZ			; CDialog::~CDialog
__unwindfunclet$??1CDialogEx@@UAE@XZ$1:
	mov	ecx, DWORD PTR _this$[ebp]
	add	ecx, 160				; 000000a0H
	jmp	??1CBrush@@UAE@XZ			; CBrush::~CBrush
__ehhandler$??1CDialogEx@@UAE@XZ:
	mov	edx, DWORD PTR [esp+8]
	lea	eax, DWORD PTR [edx+12]
	mov	ecx, DWORD PTR [edx-220]
	xor	ecx, eax
	call	@__security_check_cookie@4
	mov	eax, OFFSET __ehfuncinfo$??1CDialogEx@@UAE@XZ
	jmp	___CxxFrameHandler3
text$x	ENDS
??1CDialogEx@@UAE@XZ ENDP				; CDialogEx::~CDialogEx
; Function compile flags: /Odtp /RTCsu /ZI
;	COMDAT ?SupportsRestartManager@CWinApp@@UBEHXZ
_TEXT	SEGMENT
_this$ = -8						; size = 4
?SupportsRestartManager@CWinApp@@UBEHXZ PROC		; CWinApp::SupportsRestartManager, COMDAT
; _this$ = ecx
; File c:\program files (x86)\microsoft visual studio 10.0\vc\atlmfc\include\afxwin.h
; Line 5476
	push	ebp
	mov	ebp, esp
	sub	esp, 204				; 000000ccH
	push	ebx
	push	esi
	push	edi
	push	ecx
	lea	edi, DWORD PTR [ebp-204]
	mov	ecx, 51					; 00000033H
	mov	eax, -858993460				; ccccccccH
	rep stosd
	pop	ecx
	mov	DWORD PTR _this$[ebp], ecx
	mov	eax, DWORD PTR _this$[ebp]
	mov	eax, DWORD PTR [eax+172]
	and	eax, 1
	pop	edi
	pop	esi
	pop	ebx
	mov	esp, ebp
	pop	ebp
	ret	0
?SupportsRestartManager@CWinApp@@UBEHXZ ENDP		; CWinApp::SupportsRestartManager
; Function compile flags: /Odtp /RTCsu /ZI
_TEXT	ENDS
;	COMDAT ?SupportsApplicationRecovery@CWinApp@@UBEHXZ
_TEXT	SEGMENT
_this$ = -8						; size = 4
?SupportsApplicationRecovery@CWinApp@@UBEHXZ PROC	; CWinApp::SupportsApplicationRecovery, COMDAT
; _this$ = ecx
; Line 5477
	push	ebp
	mov	ebp, esp
	sub	esp, 204				; 000000ccH
	push	ebx
	push	esi
	push	edi
	push	ecx
	lea	edi, DWORD PTR [ebp-204]
	mov	ecx, 51					; 00000033H
	mov	eax, -858993460				; ccccccccH
	rep stosd
	pop	ecx
	mov	DWORD PTR _this$[ebp], ecx
	mov	eax, DWORD PTR _this$[ebp]
	mov	eax, DWORD PTR [eax+172]
	and	eax, 2
	pop	edi
	pop	esi
	pop	ebx
	mov	esp, ebp
	pop	ebp
	ret	0
?SupportsApplicationRecovery@CWinApp@@UBEHXZ ENDP	; CWinApp::SupportsApplicationRecovery
; Function compile flags: /Odtp /RTCsu /ZI
_TEXT	ENDS
;	COMDAT ?SupportsAutosaveAtRestart@CWinApp@@UBEHXZ
_TEXT	SEGMENT
_this$ = -8						; size = 4
?SupportsAutosaveAtRestart@CWinApp@@UBEHXZ PROC		; CWinApp::SupportsAutosaveAtRestart, COMDAT
; _this$ = ecx
; Line 5478
	push	ebp
	mov	ebp, esp
	sub	esp, 204				; 000000ccH
	push	ebx
	push	esi
	push	edi
	push	ecx
	lea	edi, DWORD PTR [ebp-204]
	mov	ecx, 51					; 00000033H
	mov	eax, -858993460				; ccccccccH
	rep stosd
	pop	ecx
	mov	DWORD PTR _this$[ebp], ecx
	mov	eax, DWORD PTR _this$[ebp]
	mov	eax, DWORD PTR [eax+172]
	and	eax, 4
	pop	edi
	pop	esi
	pop	ebx
	mov	esp, ebp
	pop	ebp
	ret	0
?SupportsAutosaveAtRestart@CWinApp@@UBEHXZ ENDP		; CWinApp::SupportsAutosaveAtRestart
; Function compile flags: /Odtp /RTCsu /ZI
_TEXT	ENDS
;	COMDAT ?SupportsAutosaveAtInterval@CWinApp@@UBEHXZ
_TEXT	SEGMENT
_this$ = -8						; size = 4
?SupportsAutosaveAtInterval@CWinApp@@UBEHXZ PROC	; CWinApp::SupportsAutosaveAtInterval, COMDAT
; _this$ = ecx
; Line 5479
	push	ebp
	mov	ebp, esp
	sub	esp, 204				; 000000ccH
	push	ebx
	push	esi
	push	edi
	push	ecx
	lea	edi, DWORD PTR [ebp-204]
	mov	ecx, 51					; 00000033H
	mov	eax, -858993460				; ccccccccH
	rep stosd
	pop	ecx
	mov	DWORD PTR _this$[ebp], ecx
	mov	eax, DWORD PTR _this$[ebp]
	mov	eax, DWORD PTR [eax+172]
	and	eax, 8
	pop	edi
	pop	esi
	pop	ebx
	mov	esp, ebp
	pop	ebp
	ret	0
?SupportsAutosaveAtInterval@CWinApp@@UBEHXZ ENDP	; CWinApp::SupportsAutosaveAtInterval
; Function compile flags: /Odtp /RTCsu /ZI
_TEXT	ENDS
;	COMDAT ?ReopenPreviousFilesAtRestart@CWinApp@@UBEHXZ
_TEXT	SEGMENT
_this$ = -8						; size = 4
?ReopenPreviousFilesAtRestart@CWinApp@@UBEHXZ PROC	; CWinApp::ReopenPreviousFilesAtRestart, COMDAT
; _this$ = ecx
; Line 5480
	push	ebp
	mov	ebp, esp
	sub	esp, 204				; 000000ccH
	push	ebx
	push	esi
	push	edi
	push	ecx
	lea	edi, DWORD PTR [ebp-204]
	mov	ecx, 51					; 00000033H
	mov	eax, -858993460				; ccccccccH
	rep stosd
	pop	ecx
	mov	DWORD PTR _this$[ebp], ecx
	mov	eax, DWORD PTR _this$[ebp]
	mov	eax, DWORD PTR [eax+172]
	and	eax, 16					; 00000010H
	pop	edi
	pop	esi
	pop	ebx
	mov	esp, ebp
	pop	ebp
	ret	0
?ReopenPreviousFilesAtRestart@CWinApp@@UBEHXZ ENDP	; CWinApp::ReopenPreviousFilesAtRestart
; Function compile flags: /Odtp /RTCsu /ZI
_TEXT	ENDS
;	COMDAT ?RestoreAutosavedFilesAtRestart@CWinApp@@UBEHXZ
_TEXT	SEGMENT
_this$ = -8						; size = 4
?RestoreAutosavedFilesAtRestart@CWinApp@@UBEHXZ PROC	; CWinApp::RestoreAutosavedFilesAtRestart, COMDAT
; _this$ = ecx
; Line 5481
	push	ebp
	mov	ebp, esp
	sub	esp, 204				; 000000ccH
	push	ebx
	push	esi
	push	edi
	push	ecx
	lea	edi, DWORD PTR [ebp-204]
	mov	ecx, 51					; 00000033H
	mov	eax, -858993460				; ccccccccH
	rep stosd
	pop	ecx
	mov	DWORD PTR _this$[ebp], ecx
	mov	eax, DWORD PTR _this$[ebp]
	mov	eax, DWORD PTR [eax+172]
	and	eax, 32					; 00000020H
	pop	edi
	pop	esi
	pop	ebx
	mov	esp, ebp
	pop	ebp
	ret	0
?RestoreAutosavedFilesAtRestart@CWinApp@@UBEHXZ ENDP	; CWinApp::RestoreAutosavedFilesAtRestart
; Function compile flags: /Odtp /RTCsu /ZI
_TEXT	ENDS
;	COMDAT ?GetApplicationRestartFlags@CWinApp@@UAEKXZ
_TEXT	SEGMENT
_this$ = -8						; size = 4
?GetApplicationRestartFlags@CWinApp@@UAEKXZ PROC	; CWinApp::GetApplicationRestartFlags, COMDAT
; _this$ = ecx
; Line 5483
	push	ebp
	mov	ebp, esp
	sub	esp, 204				; 000000ccH
	push	ebx
	push	esi
	push	edi
	push	ecx
	lea	edi, DWORD PTR [ebp-204]
	mov	ecx, 51					; 00000033H
	mov	eax, -858993460				; ccccccccH
	rep stosd
	pop	ecx
	mov	DWORD PTR _this$[ebp], ecx
	xor	eax, eax
	pop	edi
	pop	esi
	pop	ebx
	mov	esp, ebp
	pop	ebp
	ret	0
?GetApplicationRestartFlags@CWinApp@@UAEKXZ ENDP	; CWinApp::GetApplicationRestartFlags
; Function compile flags: /Odtp /RTCsu /ZI
_TEXT	ENDS
;	COMDAT ?GetApplicationRecoveryParameter@CWinApp@@UAEPAXXZ
_TEXT	SEGMENT
_this$ = -8						; size = 4
?GetApplicationRecoveryParameter@CWinApp@@UAEPAXXZ PROC	; CWinApp::GetApplicationRecoveryParameter, COMDAT
; _this$ = ecx
; Line 5484
	push	ebp
	mov	ebp, esp
	sub	esp, 204				; 000000ccH
	push	ebx
	push	esi
	push	edi
	push	ecx
	lea	edi, DWORD PTR [ebp-204]
	mov	ecx, 51					; 00000033H
	mov	eax, -858993460				; ccccccccH
	rep stosd
	pop	ecx
	mov	DWORD PTR _this$[ebp], ecx
	xor	eax, eax
	pop	edi
	pop	esi
	pop	ebx
	mov	esp, ebp
	pop	ebp
	ret	0
?GetApplicationRecoveryParameter@CWinApp@@UAEPAXXZ ENDP	; CWinApp::GetApplicationRecoveryParameter
; Function compile flags: /Odtp /RTCsu /ZI
_TEXT	ENDS
;	COMDAT ?GetApplicationRecoveryPingInterval@CWinApp@@UAEKXZ
_TEXT	SEGMENT
_this$ = -8						; size = 4
?GetApplicationRecoveryPingInterval@CWinApp@@UAEKXZ PROC ; CWinApp::GetApplicationRecoveryPingInterval, COMDAT
; _this$ = ecx
; Line 5485
	push	ebp
	mov	ebp, esp
	sub	esp, 204				; 000000ccH
	push	ebx
	push	esi
	push	edi
	push	ecx
	lea	edi, DWORD PTR [ebp-204]
	mov	ecx, 51					; 00000033H
	mov	eax, -858993460				; ccccccccH
	rep stosd
	pop	ecx
	mov	DWORD PTR _this$[ebp], ecx
	mov	eax, 5000				; 00001388H
	pop	edi
	pop	esi
	pop	ebx
	mov	esp, ebp
	pop	ebp
	ret	0
?GetApplicationRecoveryPingInterval@CWinApp@@UAEKXZ ENDP ; CWinApp::GetApplicationRecoveryPingInterval
_TEXT	ENDS
EXTRN	_atexit:PROC
; Function compile flags: /Odtp /RTCsu /ZI
;	COMDAT ??__EtheApp@@YAXXZ
text$yc	SEGMENT
??__EtheApp@@YAXXZ PROC					; `dynamic initializer for 'theApp'', COMDAT
; File d:\我的文档\visual studio 2010\projects\prohospital\prohospital\prohospital.cpp
; Line 35
	push	ebp
	mov	ebp, esp
	sub	esp, 192				; 000000c0H
	push	ebx
	push	esi
	push	edi
	lea	edi, DWORD PTR [ebp-192]
	mov	ecx, 48					; 00000030H
	mov	eax, -858993460				; ccccccccH
	rep stosd
	mov	ecx, OFFSET ?theApp@@3VCProHospitalApp@@A ; theApp
	call	??0CProHospitalApp@@QAE@XZ		; CProHospitalApp::CProHospitalApp
	push	OFFSET ??__FtheApp@@YAXXZ		; `dynamic atexit destructor for 'theApp''
	call	_atexit
	add	esp, 4
	pop	edi
	pop	esi
	pop	ebx
	add	esp, 192				; 000000c0H
	cmp	ebp, esp
	call	__RTC_CheckEsp
	mov	esp, ebp
	pop	ebp
	ret	0
??__EtheApp@@YAXXZ ENDP					; `dynamic initializer for 'theApp''
; Function compile flags: /Odtp /RTCsu /ZI
text$yc	ENDS
;	COMDAT ??__FtheApp@@YAXXZ
text$yd	SEGMENT
??__FtheApp@@YAXXZ PROC					; `dynamic atexit destructor for 'theApp'', COMDAT
	push	ebp
	mov	ebp, esp
	sub	esp, 192				; 000000c0H
	push	ebx
	push	esi
	push	edi
	lea	edi, DWORD PTR [ebp-192]
	mov	ecx, 48					; 00000030H
	mov	eax, -858993460				; ccccccccH
	rep stosd
	mov	ecx, OFFSET ?theApp@@3VCProHospitalApp@@A ; theApp
	call	??1CProHospitalApp@@UAE@XZ
	pop	edi
	pop	esi
	pop	ebx
	add	esp, 192				; 000000c0H
	cmp	ebp, esp
	call	__RTC_CheckEsp
	mov	esp, ebp
	pop	ebp
	ret	0
??__FtheApp@@YAXXZ ENDP					; `dynamic atexit destructor for 'theApp''
text$yd	ENDS
PUBLIC	?theApp@@3VCProHospitalApp@@A			; theApp
_BSS	SEGMENT
?theApp@@3VCProHospitalApp@@A DB 0b8H DUP (?)		; theApp
_BSS	ENDS
CRT$XCU	SEGMENT
_theApp$initializer$ DD FLAT:??__EtheApp@@YAXXZ
CRT$XCU	ENDS
END
